ARM GAS  G:\Users\Jaxb\AppData\Local\Temp\ccUb5Hmi.s 			page 1


   1              		.cpu cortex-m3
   2              		.eabi_attribute 20, 1
   3              		.eabi_attribute 21, 1
   4              		.eabi_attribute 23, 3
   5              		.eabi_attribute 24, 1
   6              		.eabi_attribute 25, 1
   7              		.eabi_attribute 26, 1
   8              		.eabi_attribute 30, 6
   9              		.eabi_attribute 34, 1
  10              		.eabi_attribute 18, 4
  11              		.file	"vector.c"
  12              		.text
  13              	.Ltext0:
  14              		.cfi_sections	.debug_frame
  15              		.section	.rodata
  16              		.align	2
  17              	.LC0:
  18 0000 2E2E2F2E 		.ascii	"../../source/src/kernel/OS_LIB/vector.c\000"
  18      2E2F736F 
  18      75726365 
  18      2F737263 
  18      2F6B6572 
  19              		.align	2
  20              	.LC1:
  21 0028 6572726F 		.ascii	"error fun name : Vector_init\012error para : vector"
  21      72206675 
  21      6E206E61 
  21      6D65203A 
  21      20566563 
  22 0058 5F707472 		.ascii	"_ptr\012\000"
  22      0A00
  23 005e 0000     		.align	2
  24              	.LC2:
  25 0060 6572726F 		.ascii	"error fun name : Vector_init\012error para : len_pe"
  25      72206675 
  25      6E206E61 
  25      6D65203A 
  25      20566563 
  26 0090 725F6461 		.ascii	"r_data\012\000"
  26      74610A00 
  27              		.text
  28              		.align	1
  29              		.global	Vector_init
  30              		.syntax unified
  31              		.thumb
  32              		.thumb_func
  33              		.fpu softvfp
  34              		.type	Vector_init, %function
  35              	Vector_init:
  36              	.LFB2:
  37              		.file 1 "../../source/src/kernel/OS_LIB/vector.c"
   1:../../source/src/kernel/OS_LIB/vector.c **** #include <vector.h>
   2:../../source/src/kernel/OS_LIB/vector.c **** #include <os_error.h>
   3:../../source/src/kernel/OS_LIB/vector.c **** #include <myMicroLIB.h>
   4:../../source/src/kernel/OS_LIB/vector.c **** #include <myassert.h>
   5:../../source/src/kernel/OS_LIB/vector.c **** #include <kakaosstdint.h>
   6:../../source/src/kernel/OS_LIB/vector.c **** 
ARM GAS  G:\Users\Jaxb\AppData\Local\Temp\ccUb5Hmi.s 			page 2


   7:../../source/src/kernel/OS_LIB/vector.c **** /*
   8:../../source/src/kernel/OS_LIB/vector.c **** initilize the Vector entity with vector_ptr->max_len = size,vector_ptr->cur_len = 0,
   9:../../source/src/kernel/OS_LIB/vector.c **** vector_ptr->data_size = len_per_data; then use malloc() to allocate room 
  10:../../source/src/kernel/OS_LIB/vector.c ****  */
  11:../../source/src/kernel/OS_LIB/vector.c **** int Vector_init(Vector *vector_ptr,unsigned int size,int len_per_data,unsigned int extension_factor
  12:../../source/src/kernel/OS_LIB/vector.c **** {
  38              		.loc 1 12 0
  39              		.cfi_startproc
  40              		@ args = 0, pretend = 0, frame = 16
  41              		@ frame_needed = 1, uses_anonymous_args = 0
  42 0000 80B5     		push	{r7, lr}
  43              	.LCFI0:
  44              		.cfi_def_cfa_offset 8
  45              		.cfi_offset 7, -8
  46              		.cfi_offset 14, -4
  47 0002 84B0     		sub	sp, sp, #16
  48              	.LCFI1:
  49              		.cfi_def_cfa_offset 24
  50 0004 00AF     		add	r7, sp, #0
  51              	.LCFI2:
  52              		.cfi_def_cfa_register 7
  53 0006 F860     		str	r0, [r7, #12]
  54 0008 B960     		str	r1, [r7, #8]
  55 000a 7A60     		str	r2, [r7, #4]
  56 000c 3B60     		str	r3, [r7]
  13:../../source/src/kernel/OS_LIB/vector.c **** 	ASSERT(NULL != vector_ptr);
  57              		.loc 1 13 0
  58 000e FB68     		ldr	r3, [r7, #12]
  59 0010 002B     		cmp	r3, #0
  60 0012 03D1     		bne	.L2
  61              		.loc 1 13 0 is_stmt 0 discriminator 1
  62 0014 0D21     		movs	r1, #13
  63 0016 2048     		ldr	r0, .L8
  64 0018 FFF7FEFF 		bl	_ASSERT
  65              	.L2:
  14:../../source/src/kernel/OS_LIB/vector.c **** 	ASSERT(len_per_data > 0);
  66              		.loc 1 14 0 is_stmt 1
  67 001c 7B68     		ldr	r3, [r7, #4]
  68 001e 002B     		cmp	r3, #0
  69 0020 03DC     		bgt	.L3
  70              		.loc 1 14 0 is_stmt 0 discriminator 1
  71 0022 0E21     		movs	r1, #14
  72 0024 1C48     		ldr	r0, .L8
  73 0026 FFF7FEFF 		bl	_ASSERT
  74              	.L3:
  15:../../source/src/kernel/OS_LIB/vector.c **** #if CONFIG_PARA_CHECK
  16:../../source/src/kernel/OS_LIB/vector.c **** 	if(NULL == vector_ptr)
  75              		.loc 1 16 0 is_stmt 1
  76 002a FB68     		ldr	r3, [r7, #12]
  77 002c 002B     		cmp	r3, #0
  78 002e 05D1     		bne	.L4
  17:../../source/src/kernel/OS_LIB/vector.c **** 	{
  18:../../source/src/kernel/OS_LIB/vector.c **** 		OS_ERROR_PARA_MESSAGE_DISPLAY(Vector_init,vector_ptr);
  79              		.loc 1 18 0
  80 0030 1A48     		ldr	r0, .L8+4
  81 0032 FFF7FEFF 		bl	ka_printf
  19:../../source/src/kernel/OS_LIB/vector.c **** 		return -ERROR_NULL_INPUT_PTR;
ARM GAS  G:\Users\Jaxb\AppData\Local\Temp\ccUb5Hmi.s 			page 3


  82              		.loc 1 19 0
  83 0036 6FF0FE03 		mvn	r3, #254
  84 003a 28E0     		b	.L5
  85              	.L4:
  20:../../source/src/kernel/OS_LIB/vector.c **** 	}
  21:../../source/src/kernel/OS_LIB/vector.c **** 	if(len_per_data <= 0)
  86              		.loc 1 21 0
  87 003c 7B68     		ldr	r3, [r7, #4]
  88 003e 002B     		cmp	r3, #0
  89 0040 05DC     		bgt	.L6
  22:../../source/src/kernel/OS_LIB/vector.c **** 	{
  23:../../source/src/kernel/OS_LIB/vector.c **** 		OS_ERROR_PARA_MESSAGE_DISPLAY(Vector_init,len_per_data);
  90              		.loc 1 23 0
  91 0042 1748     		ldr	r0, .L8+8
  92 0044 FFF7FEFF 		bl	ka_printf
  24:../../source/src/kernel/OS_LIB/vector.c **** 		return -ERROR_VALUELESS_INPUT;
  93              		.loc 1 24 0
  94 0048 6FF0FD03 		mvn	r3, #253
  95 004c 1FE0     		b	.L5
  96              	.L6:
  25:../../source/src/kernel/OS_LIB/vector.c **** 	}
  26:../../source/src/kernel/OS_LIB/vector.c **** #endif
  27:../../source/src/kernel/OS_LIB/vector.c **** 	vector_ptr->max_len = size;
  97              		.loc 1 27 0
  98 004e FB68     		ldr	r3, [r7, #12]
  99 0050 BA68     		ldr	r2, [r7, #8]
 100 0052 5A60     		str	r2, [r3, #4]
  28:../../source/src/kernel/OS_LIB/vector.c **** 	vector_ptr->cur_len = 0;
 101              		.loc 1 28 0
 102 0054 FB68     		ldr	r3, [r7, #12]
 103 0056 0022     		movs	r2, #0
 104 0058 9A60     		str	r2, [r3, #8]
  29:../../source/src/kernel/OS_LIB/vector.c **** 	vector_ptr->data_size = len_per_data;
 105              		.loc 1 29 0
 106 005a 7A68     		ldr	r2, [r7, #4]
 107 005c FB68     		ldr	r3, [r7, #12]
 108 005e DA60     		str	r2, [r3, #12]
  30:../../source/src/kernel/OS_LIB/vector.c **** 	vector_ptr->extension_factor = extension_factor;
 109              		.loc 1 30 0
 110 0060 FB68     		ldr	r3, [r7, #12]
 111 0062 3A68     		ldr	r2, [r7]
 112 0064 1A61     		str	r2, [r3, #16]
  31:../../source/src/kernel/OS_LIB/vector.c **** 	vector_ptr->data_ptr = f_malloc(vector_ptr->max_len * vector_ptr->data_size);
 113              		.loc 1 31 0
 114 0066 FB68     		ldr	r3, [r7, #12]
 115 0068 5B68     		ldr	r3, [r3, #4]
 116 006a FA68     		ldr	r2, [r7, #12]
 117 006c D268     		ldr	r2, [r2, #12]
 118 006e 02FB03F3 		mul	r3, r2, r3
 119 0072 1846     		mov	r0, r3
 120 0074 FFF7FEFF 		bl	ka_malloc
 121 0078 0246     		mov	r2, r0
 122 007a FB68     		ldr	r3, [r7, #12]
 123 007c 1A60     		str	r2, [r3]
  32:../../source/src/kernel/OS_LIB/vector.c **** 	if(NULL == vector_ptr->data_ptr)
 124              		.loc 1 32 0
 125 007e FB68     		ldr	r3, [r7, #12]
ARM GAS  G:\Users\Jaxb\AppData\Local\Temp\ccUb5Hmi.s 			page 4


 126 0080 1B68     		ldr	r3, [r3]
 127 0082 002B     		cmp	r3, #0
 128 0084 02D1     		bne	.L7
  33:../../source/src/kernel/OS_LIB/vector.c **** 	{
  34:../../source/src/kernel/OS_LIB/vector.c **** 		return -ERROR_ALLOCATE_ROOM;
 129              		.loc 1 34 0
 130 0086 4FF0FF33 		mov	r3, #-1
 131 008a 00E0     		b	.L5
 132              	.L7:
  35:../../source/src/kernel/OS_LIB/vector.c **** 	}
  36:../../source/src/kernel/OS_LIB/vector.c **** 	return FUN_EXECUTE_SUCCESSFULLY;
 133              		.loc 1 36 0
 134 008c 0023     		movs	r3, #0
 135              	.L5:
  37:../../source/src/kernel/OS_LIB/vector.c **** }
 136              		.loc 1 37 0
 137 008e 1846     		mov	r0, r3
 138 0090 1037     		adds	r7, r7, #16
 139              	.LCFI3:
 140              		.cfi_def_cfa_offset 8
 141 0092 BD46     		mov	sp, r7
 142              	.LCFI4:
 143              		.cfi_def_cfa_register 13
 144              		@ sp needed
 145 0094 80BD     		pop	{r7, pc}
 146              	.L9:
 147 0096 00BF     		.align	2
 148              	.L8:
 149 0098 00000000 		.word	.LC0
 150 009c 28000000 		.word	.LC1
 151 00a0 60000000 		.word	.LC2
 152              		.cfi_endproc
 153              	.LFE2:
 154              		.size	Vector_init, .-Vector_init
 155              		.align	1
 156              		.syntax unified
 157              		.thumb
 158              		.thumb_func
 159              		.fpu softvfp
 160              		.type	expand_room, %function
 161              	expand_room:
 162              	.LFB3:
  38:../../source/src/kernel/OS_LIB/vector.c **** 
  39:../../source/src/kernel/OS_LIB/vector.c **** /*
  40:../../source/src/kernel/OS_LIB/vector.c **** allocate a bigger room for vector with factor extension_factor
  41:../../source/src/kernel/OS_LIB/vector.c **** then change the attribution max_len
  42:../../source/src/kernel/OS_LIB/vector.c ****  */
  43:../../source/src/kernel/OS_LIB/vector.c **** static int expand_room(Vector *vector_ptr)
  44:../../source/src/kernel/OS_LIB/vector.c **** {
 163              		.loc 1 44 0
 164              		.cfi_startproc
 165              		@ args = 0, pretend = 0, frame = 16
 166              		@ frame_needed = 1, uses_anonymous_args = 0
 167 00a4 80B5     		push	{r7, lr}
 168              	.LCFI5:
 169              		.cfi_def_cfa_offset 8
 170              		.cfi_offset 7, -8
ARM GAS  G:\Users\Jaxb\AppData\Local\Temp\ccUb5Hmi.s 			page 5


 171              		.cfi_offset 14, -4
 172 00a6 84B0     		sub	sp, sp, #16
 173              	.LCFI6:
 174              		.cfi_def_cfa_offset 24
 175 00a8 00AF     		add	r7, sp, #0
 176              	.LCFI7:
 177              		.cfi_def_cfa_register 7
 178 00aa 7860     		str	r0, [r7, #4]
  45:../../source/src/kernel/OS_LIB/vector.c **** 	ASSERT(NULL != vector_ptr);
 179              		.loc 1 45 0
 180 00ac 7B68     		ldr	r3, [r7, #4]
 181 00ae 002B     		cmp	r3, #0
 182 00b0 03D1     		bne	.L11
 183              		.loc 1 45 0 is_stmt 0 discriminator 1
 184 00b2 2D21     		movs	r1, #45
 185 00b4 3948     		ldr	r0, .L20
 186 00b6 FFF7FEFF 		bl	_ASSERT
 187              	.L11:
  46:../../source/src/kernel/OS_LIB/vector.c **** 	ASSERT(vector_ptr->cur_len == vector_ptr->max_len);
 188              		.loc 1 46 0 is_stmt 1
 189 00ba 7B68     		ldr	r3, [r7, #4]
 190 00bc 9A68     		ldr	r2, [r3, #8]
 191 00be 7B68     		ldr	r3, [r7, #4]
 192 00c0 5B68     		ldr	r3, [r3, #4]
 193 00c2 9A42     		cmp	r2, r3
 194 00c4 03D0     		beq	.L12
 195              		.loc 1 46 0 is_stmt 0 discriminator 1
 196 00c6 2E21     		movs	r1, #46
 197 00c8 3448     		ldr	r0, .L20
 198 00ca FFF7FEFF 		bl	_ASSERT
 199              	.L12:
  47:../../source/src/kernel/OS_LIB/vector.c **** 
  48:../../source/src/kernel/OS_LIB/vector.c **** 	void *buffer_ptr = vector_ptr->data_ptr;
 200              		.loc 1 48 0 is_stmt 1
 201 00ce 7B68     		ldr	r3, [r7, #4]
 202 00d0 1B68     		ldr	r3, [r3]
 203 00d2 FB60     		str	r3, [r7, #12]
  49:../../source/src/kernel/OS_LIB/vector.c **** 	if(VFISMUL(vector_ptr->extension_factor))
 204              		.loc 1 49 0
 205 00d4 7B68     		ldr	r3, [r7, #4]
 206 00d6 1B69     		ldr	r3, [r3, #16]
 207 00d8 002B     		cmp	r3, #0
 208 00da 12DA     		bge	.L13
  50:../../source/src/kernel/OS_LIB/vector.c **** 	{
  51:../../source/src/kernel/OS_LIB/vector.c **** 		vector_ptr->data_ptr = f_malloc(GET_EXPENSION_FACTOR(vector_ptr->extension_factor) * vector_ptr->
 209              		.loc 1 51 0
 210 00dc 7B68     		ldr	r3, [r7, #4]
 211 00de 1B69     		ldr	r3, [r3, #16]
 212 00e0 23F00043 		bic	r3, r3, #-2147483648
 213 00e4 7A68     		ldr	r2, [r7, #4]
 214 00e6 5268     		ldr	r2, [r2, #4]
 215 00e8 02FB03F3 		mul	r3, r2, r3
 216 00ec 7A68     		ldr	r2, [r7, #4]
 217 00ee D268     		ldr	r2, [r2, #12]
 218 00f0 02FB03F3 		mul	r3, r2, r3
 219 00f4 1846     		mov	r0, r3
 220 00f6 FFF7FEFF 		bl	ka_malloc
ARM GAS  G:\Users\Jaxb\AppData\Local\Temp\ccUb5Hmi.s 			page 6


 221 00fa 0246     		mov	r2, r0
 222 00fc 7B68     		ldr	r3, [r7, #4]
 223 00fe 1A60     		str	r2, [r3]
 224 0100 10E0     		b	.L14
 225              	.L13:
  52:../../source/src/kernel/OS_LIB/vector.c **** 	}
  53:../../source/src/kernel/OS_LIB/vector.c **** 	else
  54:../../source/src/kernel/OS_LIB/vector.c **** 	{
  55:../../source/src/kernel/OS_LIB/vector.c **** 		vector_ptr->data_ptr = f_malloc((GET_EXPENSION_FACTOR(vector_ptr->extension_factor) + vector_ptr-
 226              		.loc 1 55 0
 227 0102 7B68     		ldr	r3, [r7, #4]
 228 0104 1B69     		ldr	r3, [r3, #16]
 229 0106 23F00042 		bic	r2, r3, #-2147483648
 230 010a 7B68     		ldr	r3, [r7, #4]
 231 010c 5B68     		ldr	r3, [r3, #4]
 232 010e 1344     		add	r3, r3, r2
 233 0110 7A68     		ldr	r2, [r7, #4]
 234 0112 D268     		ldr	r2, [r2, #12]
 235 0114 02FB03F3 		mul	r3, r2, r3
 236 0118 1846     		mov	r0, r3
 237 011a FFF7FEFF 		bl	ka_malloc
 238 011e 0246     		mov	r2, r0
 239 0120 7B68     		ldr	r3, [r7, #4]
 240 0122 1A60     		str	r2, [r3]
 241              	.L14:
  56:../../source/src/kernel/OS_LIB/vector.c **** 	}
  57:../../source/src/kernel/OS_LIB/vector.c **** 	ASSERT(NULL != vector_ptr->data_ptr);
 242              		.loc 1 57 0
 243 0124 7B68     		ldr	r3, [r7, #4]
 244 0126 1B68     		ldr	r3, [r3]
 245 0128 002B     		cmp	r3, #0
 246 012a 03D1     		bne	.L15
 247              		.loc 1 57 0 is_stmt 0 discriminator 1
 248 012c 3921     		movs	r1, #57
 249 012e 1B48     		ldr	r0, .L20
 250 0130 FFF7FEFF 		bl	_ASSERT
 251              	.L15:
  58:../../source/src/kernel/OS_LIB/vector.c **** 	if(NULL == vector_ptr->data_ptr)
 252              		.loc 1 58 0 is_stmt 1
 253 0134 7B68     		ldr	r3, [r7, #4]
 254 0136 1B68     		ldr	r3, [r3]
 255 0138 002B     		cmp	r3, #0
 256 013a 02D1     		bne	.L16
  59:../../source/src/kernel/OS_LIB/vector.c **** 	{
  60:../../source/src/kernel/OS_LIB/vector.c **** 		return -ERROR_ALLOCATE_ROOM;
 257              		.loc 1 60 0
 258 013c 4FF0FF33 		mov	r3, #-1
 259 0140 27E0     		b	.L17
 260              	.L16:
  61:../../source/src/kernel/OS_LIB/vector.c **** 	}
  62:../../source/src/kernel/OS_LIB/vector.c **** 	f_memcpy(vector_ptr->data_ptr,buffer_ptr,vector_ptr->max_len * vector_ptr->data_size);
 261              		.loc 1 62 0
 262 0142 7B68     		ldr	r3, [r7, #4]
 263 0144 1868     		ldr	r0, [r3]
 264 0146 7B68     		ldr	r3, [r7, #4]
 265 0148 5B68     		ldr	r3, [r3, #4]
 266 014a 7A68     		ldr	r2, [r7, #4]
ARM GAS  G:\Users\Jaxb\AppData\Local\Temp\ccUb5Hmi.s 			page 7


 267 014c D268     		ldr	r2, [r2, #12]
 268 014e 02FB03F3 		mul	r3, r2, r3
 269 0152 1A46     		mov	r2, r3
 270 0154 F968     		ldr	r1, [r7, #12]
 271 0156 FFF7FEFF 		bl	ka_memcpy
  63:../../source/src/kernel/OS_LIB/vector.c **** 	if(VFISMUL(vector_ptr->extension_factor))
 272              		.loc 1 63 0
 273 015a 7B68     		ldr	r3, [r7, #4]
 274 015c 1B69     		ldr	r3, [r3, #16]
 275 015e 002B     		cmp	r3, #0
 276 0160 0ADA     		bge	.L18
  64:../../source/src/kernel/OS_LIB/vector.c **** 	{
  65:../../source/src/kernel/OS_LIB/vector.c **** 		vector_ptr->max_len *= GET_EXPENSION_FACTOR(vector_ptr->extension_factor);
 277              		.loc 1 65 0
 278 0162 7B68     		ldr	r3, [r7, #4]
 279 0164 5B68     		ldr	r3, [r3, #4]
 280 0166 7A68     		ldr	r2, [r7, #4]
 281 0168 1269     		ldr	r2, [r2, #16]
 282 016a 22F00042 		bic	r2, r2, #-2147483648
 283 016e 02FB03F2 		mul	r2, r2, r3
 284 0172 7B68     		ldr	r3, [r7, #4]
 285 0174 5A60     		str	r2, [r3, #4]
 286 0176 08E0     		b	.L19
 287              	.L18:
  66:../../source/src/kernel/OS_LIB/vector.c **** 	}
  67:../../source/src/kernel/OS_LIB/vector.c **** 	else
  68:../../source/src/kernel/OS_LIB/vector.c **** 	{
  69:../../source/src/kernel/OS_LIB/vector.c **** 		vector_ptr->max_len += GET_EXPENSION_FACTOR(vector_ptr->extension_factor);
 288              		.loc 1 69 0
 289 0178 7B68     		ldr	r3, [r7, #4]
 290 017a 5A68     		ldr	r2, [r3, #4]
 291 017c 7B68     		ldr	r3, [r7, #4]
 292 017e 1B69     		ldr	r3, [r3, #16]
 293 0180 23F00043 		bic	r3, r3, #-2147483648
 294 0184 1A44     		add	r2, r2, r3
 295 0186 7B68     		ldr	r3, [r7, #4]
 296 0188 5A60     		str	r2, [r3, #4]
 297              	.L19:
  70:../../source/src/kernel/OS_LIB/vector.c **** 	}
  71:../../source/src/kernel/OS_LIB/vector.c **** 	
  72:../../source/src/kernel/OS_LIB/vector.c **** 	f_free(buffer_ptr);
 298              		.loc 1 72 0
 299 018a F868     		ldr	r0, [r7, #12]
 300 018c FFF7FEFF 		bl	ka_free
  73:../../source/src/kernel/OS_LIB/vector.c **** 	return FUN_EXECUTE_SUCCESSFULLY;
 301              		.loc 1 73 0
 302 0190 0023     		movs	r3, #0
 303              	.L17:
  74:../../source/src/kernel/OS_LIB/vector.c **** }
 304              		.loc 1 74 0
 305 0192 1846     		mov	r0, r3
 306 0194 1037     		adds	r7, r7, #16
 307              	.LCFI8:
 308              		.cfi_def_cfa_offset 8
 309 0196 BD46     		mov	sp, r7
 310              	.LCFI9:
 311              		.cfi_def_cfa_register 13
ARM GAS  G:\Users\Jaxb\AppData\Local\Temp\ccUb5Hmi.s 			page 8


 312              		@ sp needed
 313 0198 80BD     		pop	{r7, pc}
 314              	.L21:
 315 019a 00BF     		.align	2
 316              	.L20:
 317 019c 00000000 		.word	.LC0
 318              		.cfi_endproc
 319              	.LFE3:
 320              		.size	expand_room, .-expand_room
 321              		.section	.rodata
 322              		.align	2
 323              	.LC3:
 324 0098 6572726F 		.ascii	"error fun name : Vector_push_back\012error para : v"
 324      72206675 
 324      6E206E61 
 324      6D65203A 
 324      20566563 
 325 00c8 6563746F 		.ascii	"ector_ptr\012\000"
 325      725F7074 
 325      720A00
 326 00d3 00       		.align	2
 327              	.LC4:
 328 00d4 6572726F 		.ascii	"error fun name : Vector_push_back\012error para : p"
 328      72206675 
 328      6E206E61 
 328      6D65203A 
 328      20566563 
 329 0104 7573685F 		.ascii	"ush_data_ptr\012\000"
 329      64617461 
 329      5F707472 
 329      0A00
 330              		.text
 331              		.align	1
 332              		.global	Vector_push_back
 333              		.syntax unified
 334              		.thumb
 335              		.thumb_func
 336              		.fpu softvfp
 337              		.type	Vector_push_back, %function
 338              	Vector_push_back:
 339              	.LFB4:
  75:../../source/src/kernel/OS_LIB/vector.c **** 
  76:../../source/src/kernel/OS_LIB/vector.c **** /*
  77:../../source/src/kernel/OS_LIB/vector.c **** add a data at tail
  78:../../source/src/kernel/OS_LIB/vector.c ****  */
  79:../../source/src/kernel/OS_LIB/vector.c **** int Vector_push_back(Vector *vector_ptr,void *push_data_ptr)
  80:../../source/src/kernel/OS_LIB/vector.c **** {
 340              		.loc 1 80 0
 341              		.cfi_startproc
 342              		@ args = 0, pretend = 0, frame = 8
 343              		@ frame_needed = 1, uses_anonymous_args = 0
 344 01a0 80B5     		push	{r7, lr}
 345              	.LCFI10:
 346              		.cfi_def_cfa_offset 8
 347              		.cfi_offset 7, -8
 348              		.cfi_offset 14, -4
 349 01a2 82B0     		sub	sp, sp, #8
ARM GAS  G:\Users\Jaxb\AppData\Local\Temp\ccUb5Hmi.s 			page 9


 350              	.LCFI11:
 351              		.cfi_def_cfa_offset 16
 352 01a4 00AF     		add	r7, sp, #0
 353              	.LCFI12:
 354              		.cfi_def_cfa_register 7
 355 01a6 7860     		str	r0, [r7, #4]
 356 01a8 3960     		str	r1, [r7]
  81:../../source/src/kernel/OS_LIB/vector.c **** 	ASSERT(NULL != vector_ptr);
 357              		.loc 1 81 0
 358 01aa 7B68     		ldr	r3, [r7, #4]
 359 01ac 002B     		cmp	r3, #0
 360 01ae 03D1     		bne	.L23
 361              		.loc 1 81 0 is_stmt 0 discriminator 1
 362 01b0 5121     		movs	r1, #81
 363 01b2 3048     		ldr	r0, .L32
 364 01b4 FFF7FEFF 		bl	_ASSERT
 365              	.L23:
  82:../../source/src/kernel/OS_LIB/vector.c **** 	ASSERT(NULL != push_data_ptr);
 366              		.loc 1 82 0 is_stmt 1
 367 01b8 3B68     		ldr	r3, [r7]
 368 01ba 002B     		cmp	r3, #0
 369 01bc 03D1     		bne	.L24
 370              		.loc 1 82 0 is_stmt 0 discriminator 1
 371 01be 5221     		movs	r1, #82
 372 01c0 2C48     		ldr	r0, .L32
 373 01c2 FFF7FEFF 		bl	_ASSERT
 374              	.L24:
  83:../../source/src/kernel/OS_LIB/vector.c **** #if CONFIG_PARA_CHECK
  84:../../source/src/kernel/OS_LIB/vector.c **** 	if((NULL == vector_ptr) || (NULL == push_data_ptr))
 375              		.loc 1 84 0 is_stmt 1
 376 01c6 7B68     		ldr	r3, [r7, #4]
 377 01c8 002B     		cmp	r3, #0
 378 01ca 02D0     		beq	.L25
 379              		.loc 1 84 0 is_stmt 0 discriminator 1
 380 01cc 3B68     		ldr	r3, [r7]
 381 01ce 002B     		cmp	r3, #0
 382 01d0 08D1     		bne	.L26
 383              	.L25:
  85:../../source/src/kernel/OS_LIB/vector.c **** 	{
  86:../../source/src/kernel/OS_LIB/vector.c **** 		OS_ERROR_PARA_MESSAGE_DISPLAY(Vector_push_back,vector_ptr);
 384              		.loc 1 86 0 is_stmt 1
 385 01d2 2948     		ldr	r0, .L32+4
 386 01d4 FFF7FEFF 		bl	ka_printf
  87:../../source/src/kernel/OS_LIB/vector.c **** 		OS_ERROR_PARA_MESSAGE_DISPLAY(Vector_push_back,push_data_ptr);
 387              		.loc 1 87 0
 388 01d8 2848     		ldr	r0, .L32+8
 389 01da FFF7FEFF 		bl	ka_printf
  88:../../source/src/kernel/OS_LIB/vector.c **** 		return -ERROR_NULL_INPUT_PTR;
 390              		.loc 1 88 0
 391 01de 6FF0FE03 		mvn	r3, #254
 392 01e2 42E0     		b	.L27
 393              	.L26:
  89:../../source/src/kernel/OS_LIB/vector.c **** 	}
  90:../../source/src/kernel/OS_LIB/vector.c **** #endif
  91:../../source/src/kernel/OS_LIB/vector.c **** 	if(vector_ptr->cur_len < vector_ptr->max_len)
 394              		.loc 1 91 0
 395 01e4 7B68     		ldr	r3, [r7, #4]
ARM GAS  G:\Users\Jaxb\AppData\Local\Temp\ccUb5Hmi.s 			page 10


 396 01e6 9A68     		ldr	r2, [r3, #8]
 397 01e8 7B68     		ldr	r3, [r7, #4]
 398 01ea 5B68     		ldr	r3, [r3, #4]
 399 01ec 9A42     		cmp	r2, r3
 400 01ee 14D2     		bcs	.L28
  92:../../source/src/kernel/OS_LIB/vector.c **** 	{
  93:../../source/src/kernel/OS_LIB/vector.c **** 		f_memcpy((char*)(vector_ptr->data_ptr) + vector_ptr->cur_len * vector_ptr->data_size,push_data_pt
 401              		.loc 1 93 0
 402 01f0 7B68     		ldr	r3, [r7, #4]
 403 01f2 1A68     		ldr	r2, [r3]
 404 01f4 7B68     		ldr	r3, [r7, #4]
 405 01f6 9B68     		ldr	r3, [r3, #8]
 406 01f8 7968     		ldr	r1, [r7, #4]
 407 01fa C968     		ldr	r1, [r1, #12]
 408 01fc 01FB03F3 		mul	r3, r1, r3
 409 0200 D018     		adds	r0, r2, r3
 410 0202 7B68     		ldr	r3, [r7, #4]
 411 0204 DB68     		ldr	r3, [r3, #12]
 412 0206 1A46     		mov	r2, r3
 413 0208 3968     		ldr	r1, [r7]
 414 020a FFF7FEFF 		bl	ka_memcpy
  94:../../source/src/kernel/OS_LIB/vector.c **** 		++(vector_ptr->cur_len);
 415              		.loc 1 94 0
 416 020e 7B68     		ldr	r3, [r7, #4]
 417 0210 9B68     		ldr	r3, [r3, #8]
 418 0212 5A1C     		adds	r2, r3, #1
 419 0214 7B68     		ldr	r3, [r7, #4]
 420 0216 9A60     		str	r2, [r3, #8]
 421 0218 26E0     		b	.L29
 422              	.L28:
  95:../../source/src/kernel/OS_LIB/vector.c **** 	}
  96:../../source/src/kernel/OS_LIB/vector.c **** 	else
  97:../../source/src/kernel/OS_LIB/vector.c **** 	{
  98:../../source/src/kernel/OS_LIB/vector.c **** 		ASSERT(vector_ptr->cur_len == vector_ptr->max_len);
 423              		.loc 1 98 0
 424 021a 7B68     		ldr	r3, [r7, #4]
 425 021c 9A68     		ldr	r2, [r3, #8]
 426 021e 7B68     		ldr	r3, [r7, #4]
 427 0220 5B68     		ldr	r3, [r3, #4]
 428 0222 9A42     		cmp	r2, r3
 429 0224 03D0     		beq	.L30
 430              		.loc 1 98 0 is_stmt 0 discriminator 1
 431 0226 6221     		movs	r1, #98
 432 0228 1248     		ldr	r0, .L32
 433 022a FFF7FEFF 		bl	_ASSERT
 434              	.L30:
  99:../../source/src/kernel/OS_LIB/vector.c **** 		if(expand_room(vector_ptr) < 0)
 435              		.loc 1 99 0 is_stmt 1
 436 022e 7868     		ldr	r0, [r7, #4]
 437 0230 FFF738FF 		bl	expand_room
 438 0234 0346     		mov	r3, r0
 439 0236 002B     		cmp	r3, #0
 440 0238 02DA     		bge	.L31
 100:../../source/src/kernel/OS_LIB/vector.c **** 		{
 101:../../source/src/kernel/OS_LIB/vector.c **** 			return -ERROR_ALLOCATE_ROOM;
 441              		.loc 1 101 0
 442 023a 4FF0FF33 		mov	r3, #-1
ARM GAS  G:\Users\Jaxb\AppData\Local\Temp\ccUb5Hmi.s 			page 11


 443 023e 14E0     		b	.L27
 444              	.L31:
 102:../../source/src/kernel/OS_LIB/vector.c **** 		}
 103:../../source/src/kernel/OS_LIB/vector.c **** 		f_memcpy((char*)(vector_ptr->data_ptr) + vector_ptr->cur_len * vector_ptr->data_size,push_data_pt
 445              		.loc 1 103 0
 446 0240 7B68     		ldr	r3, [r7, #4]
 447 0242 1A68     		ldr	r2, [r3]
 448 0244 7B68     		ldr	r3, [r7, #4]
 449 0246 9B68     		ldr	r3, [r3, #8]
 450 0248 7968     		ldr	r1, [r7, #4]
 451 024a C968     		ldr	r1, [r1, #12]
 452 024c 01FB03F3 		mul	r3, r1, r3
 453 0250 D018     		adds	r0, r2, r3
 454 0252 7B68     		ldr	r3, [r7, #4]
 455 0254 DB68     		ldr	r3, [r3, #12]
 456 0256 1A46     		mov	r2, r3
 457 0258 3968     		ldr	r1, [r7]
 458 025a FFF7FEFF 		bl	ka_memcpy
 104:../../source/src/kernel/OS_LIB/vector.c **** 		++(vector_ptr->cur_len);
 459              		.loc 1 104 0
 460 025e 7B68     		ldr	r3, [r7, #4]
 461 0260 9B68     		ldr	r3, [r3, #8]
 462 0262 5A1C     		adds	r2, r3, #1
 463 0264 7B68     		ldr	r3, [r7, #4]
 464 0266 9A60     		str	r2, [r3, #8]
 465              	.L29:
 105:../../source/src/kernel/OS_LIB/vector.c **** 	}
 106:../../source/src/kernel/OS_LIB/vector.c **** 	return FUN_EXECUTE_SUCCESSFULLY;
 466              		.loc 1 106 0
 467 0268 0023     		movs	r3, #0
 468              	.L27:
 107:../../source/src/kernel/OS_LIB/vector.c **** }
 469              		.loc 1 107 0
 470 026a 1846     		mov	r0, r3
 471 026c 0837     		adds	r7, r7, #8
 472              	.LCFI13:
 473              		.cfi_def_cfa_offset 8
 474 026e BD46     		mov	sp, r7
 475              	.LCFI14:
 476              		.cfi_def_cfa_register 13
 477              		@ sp needed
 478 0270 80BD     		pop	{r7, pc}
 479              	.L33:
 480 0272 00BF     		.align	2
 481              	.L32:
 482 0274 00000000 		.word	.LC0
 483 0278 98000000 		.word	.LC3
 484 027c D4000000 		.word	.LC4
 485              		.cfi_endproc
 486              	.LFE4:
 487              		.size	Vector_push_back, .-Vector_push_back
 488              		.section	.rodata
 489 0112 0000     		.align	2
 490              	.LC5:
 491 0114 6572726F 		.ascii	"error fun name : Vector_pop_back\012error para : ve"
 491      72206675 
 491      6E206E61 
ARM GAS  G:\Users\Jaxb\AppData\Local\Temp\ccUb5Hmi.s 			page 12


 491      6D65203A 
 491      20566563 
 492 0144 63746F72 		.ascii	"ctor_ptr\012\000"
 492      5F707472 
 492      0A00
 493              		.text
 494              		.align	1
 495              		.global	Vector_pop_back
 496              		.syntax unified
 497              		.thumb
 498              		.thumb_func
 499              		.fpu softvfp
 500              		.type	Vector_pop_back, %function
 501              	Vector_pop_back:
 502              	.LFB5:
 108:../../source/src/kernel/OS_LIB/vector.c **** 
 109:../../source/src/kernel/OS_LIB/vector.c **** /*
 110:../../source/src/kernel/OS_LIB/vector.c **** pop the tail datta and store it into pop_data_ptr
 111:../../source/src/kernel/OS_LIB/vector.c ****  */
 112:../../source/src/kernel/OS_LIB/vector.c **** int Vector_pop_back(Vector *vector_ptr,void *pop_data_ptr)
 113:../../source/src/kernel/OS_LIB/vector.c **** {
 503              		.loc 1 113 0
 504              		.cfi_startproc
 505              		@ args = 0, pretend = 0, frame = 8
 506              		@ frame_needed = 1, uses_anonymous_args = 0
 507 0280 80B5     		push	{r7, lr}
 508              	.LCFI15:
 509              		.cfi_def_cfa_offset 8
 510              		.cfi_offset 7, -8
 511              		.cfi_offset 14, -4
 512 0282 82B0     		sub	sp, sp, #8
 513              	.LCFI16:
 514              		.cfi_def_cfa_offset 16
 515 0284 00AF     		add	r7, sp, #0
 516              	.LCFI17:
 517              		.cfi_def_cfa_register 7
 518 0286 7860     		str	r0, [r7, #4]
 519 0288 3960     		str	r1, [r7]
 114:../../source/src/kernel/OS_LIB/vector.c **** 	ASSERT(NULL != vector_ptr);
 520              		.loc 1 114 0
 521 028a 7B68     		ldr	r3, [r7, #4]
 522 028c 002B     		cmp	r3, #0
 523 028e 03D1     		bne	.L35
 524              		.loc 1 114 0 is_stmt 0 discriminator 1
 525 0290 7221     		movs	r1, #114
 526 0292 1748     		ldr	r0, .L40
 527 0294 FFF7FEFF 		bl	_ASSERT
 528              	.L35:
 115:../../source/src/kernel/OS_LIB/vector.c **** #if CONFIG_PARA_CHECK
 116:../../source/src/kernel/OS_LIB/vector.c **** 	if(NULL == vector_ptr)
 529              		.loc 1 116 0 is_stmt 1
 530 0298 7B68     		ldr	r3, [r7, #4]
 531 029a 002B     		cmp	r3, #0
 532 029c 05D1     		bne	.L36
 117:../../source/src/kernel/OS_LIB/vector.c **** 	{
 118:../../source/src/kernel/OS_LIB/vector.c **** 		OS_ERROR_PARA_MESSAGE_DISPLAY(Vector_pop_back,vector_ptr);
 533              		.loc 1 118 0
ARM GAS  G:\Users\Jaxb\AppData\Local\Temp\ccUb5Hmi.s 			page 13


 534 029e 1548     		ldr	r0, .L40+4
 535 02a0 FFF7FEFF 		bl	ka_printf
 119:../../source/src/kernel/OS_LIB/vector.c **** 		return -ERROR_NULL_INPUT_PTR;
 536              		.loc 1 119 0
 537 02a4 6FF0FE03 		mvn	r3, #254
 538 02a8 1EE0     		b	.L37
 539              	.L36:
 120:../../source/src/kernel/OS_LIB/vector.c **** 	}
 121:../../source/src/kernel/OS_LIB/vector.c **** #endif
 122:../../source/src/kernel/OS_LIB/vector.c **** //	ASSERT(vector_ptr->cur_len >= 0);
 123:../../source/src/kernel/OS_LIB/vector.c **** 	if(0 == vector_ptr->cur_len)
 540              		.loc 1 123 0
 541 02aa 7B68     		ldr	r3, [r7, #4]
 542 02ac 9B68     		ldr	r3, [r3, #8]
 543 02ae 002B     		cmp	r3, #0
 544 02b0 02D1     		bne	.L38
 124:../../source/src/kernel/OS_LIB/vector.c **** 	{
 125:../../source/src/kernel/OS_LIB/vector.c **** 		return -ERROR_DATA_EMPTY;
 545              		.loc 1 125 0
 546 02b2 6FF00103 		mvn	r3, #1
 547 02b6 17E0     		b	.L37
 548              	.L38:
 126:../../source/src/kernel/OS_LIB/vector.c **** 	}
 127:../../source/src/kernel/OS_LIB/vector.c **** 	--(vector_ptr->cur_len);
 549              		.loc 1 127 0
 550 02b8 7B68     		ldr	r3, [r7, #4]
 551 02ba 9B68     		ldr	r3, [r3, #8]
 552 02bc 5A1E     		subs	r2, r3, #1
 553 02be 7B68     		ldr	r3, [r7, #4]
 554 02c0 9A60     		str	r2, [r3, #8]
 128:../../source/src/kernel/OS_LIB/vector.c **** 	if(pop_data_ptr) // if NULL != pop_data_ptr
 555              		.loc 1 128 0
 556 02c2 3B68     		ldr	r3, [r7]
 557 02c4 002B     		cmp	r3, #0
 558 02c6 0ED0     		beq	.L39
 129:../../source/src/kernel/OS_LIB/vector.c **** 		f_memcpy(pop_data_ptr,(char*)(vector_ptr->data_ptr) + vector_ptr->cur_len * vector_ptr->data_size
 559              		.loc 1 129 0
 560 02c8 7B68     		ldr	r3, [r7, #4]
 561 02ca 1A68     		ldr	r2, [r3]
 562 02cc 7B68     		ldr	r3, [r7, #4]
 563 02ce 9B68     		ldr	r3, [r3, #8]
 564 02d0 7968     		ldr	r1, [r7, #4]
 565 02d2 C968     		ldr	r1, [r1, #12]
 566 02d4 01FB03F3 		mul	r3, r1, r3
 567 02d8 D118     		adds	r1, r2, r3
 568 02da 7B68     		ldr	r3, [r7, #4]
 569 02dc DB68     		ldr	r3, [r3, #12]
 570 02de 1A46     		mov	r2, r3
 571 02e0 3868     		ldr	r0, [r7]
 572 02e2 FFF7FEFF 		bl	ka_memcpy
 573              	.L39:
 130:../../source/src/kernel/OS_LIB/vector.c **** 	return FUN_EXECUTE_SUCCESSFULLY;
 574              		.loc 1 130 0
 575 02e6 0023     		movs	r3, #0
 576              	.L37:
 131:../../source/src/kernel/OS_LIB/vector.c **** }
 577              		.loc 1 131 0
ARM GAS  G:\Users\Jaxb\AppData\Local\Temp\ccUb5Hmi.s 			page 14


 578 02e8 1846     		mov	r0, r3
 579 02ea 0837     		adds	r7, r7, #8
 580              	.LCFI18:
 581              		.cfi_def_cfa_offset 8
 582 02ec BD46     		mov	sp, r7
 583              	.LCFI19:
 584              		.cfi_def_cfa_register 13
 585              		@ sp needed
 586 02ee 80BD     		pop	{r7, pc}
 587              	.L41:
 588              		.align	2
 589              	.L40:
 590 02f0 00000000 		.word	.LC0
 591 02f4 14010000 		.word	.LC5
 592              		.cfi_endproc
 593              	.LFE5:
 594              		.size	Vector_pop_back, .-Vector_pop_back
 595              		.section	.rodata
 596 014e 0000     		.align	2
 597              	.LC6:
 598 0150 6572726F 		.ascii	"error fun name : Vector_get_index_data\012error par"
 598      72206675 
 598      6E206E61 
 598      6D65203A 
 598      20566563 
 599 0180 61203A20 		.ascii	"a : vector_ptr\012\000"
 599      76656374 
 599      6F725F70 
 599      74720A00 
 600              		.align	2
 601              	.LC7:
 602 0190 6572726F 		.ascii	"error fun name : Vector_get_index_data\012error par"
 602      72206675 
 602      6E206E61 
 602      6D65203A 
 602      20566563 
 603 01c0 61203A20 		.ascii	"a : data_store_ptr\012\000"
 603      64617461 
 603      5F73746F 
 603      72655F70 
 603      74720A00 
 604              		.align	2
 605              	.LC8:
 606 01d4 6572726F 		.ascii	"error fun name : Vector_get_index_data\012error par"
 606      72206675 
 606      6E206E61 
 606      6D65203A 
 606      20566563 
 607 0204 61203A20 		.ascii	"a : index\012\000"
 607      696E6465 
 607      780A00
 608              		.text
 609              		.align	1
 610              		.global	Vector_get_index_data
 611              		.syntax unified
 612              		.thumb
 613              		.thumb_func
ARM GAS  G:\Users\Jaxb\AppData\Local\Temp\ccUb5Hmi.s 			page 15


 614              		.fpu softvfp
 615              		.type	Vector_get_index_data, %function
 616              	Vector_get_index_data:
 617              	.LFB6:
 132:../../source/src/kernel/OS_LIB/vector.c **** 
 133:../../source/src/kernel/OS_LIB/vector.c **** /*
 134:../../source/src/kernel/OS_LIB/vector.c **** get vector[index] data into *data_store_ptr
 135:../../source/src/kernel/OS_LIB/vector.c ****  */
 136:../../source/src/kernel/OS_LIB/vector.c **** int Vector_get_index_data(Vector *vector_ptr,unsigned int index,void *data_store_ptr)
 137:../../source/src/kernel/OS_LIB/vector.c **** {
 618              		.loc 1 137 0
 619              		.cfi_startproc
 620              		@ args = 0, pretend = 0, frame = 16
 621              		@ frame_needed = 1, uses_anonymous_args = 0
 622 02f8 80B5     		push	{r7, lr}
 623              	.LCFI20:
 624              		.cfi_def_cfa_offset 8
 625              		.cfi_offset 7, -8
 626              		.cfi_offset 14, -4
 627 02fa 84B0     		sub	sp, sp, #16
 628              	.LCFI21:
 629              		.cfi_def_cfa_offset 24
 630 02fc 00AF     		add	r7, sp, #0
 631              	.LCFI22:
 632              		.cfi_def_cfa_register 7
 633 02fe F860     		str	r0, [r7, #12]
 634 0300 B960     		str	r1, [r7, #8]
 635 0302 7A60     		str	r2, [r7, #4]
 138:../../source/src/kernel/OS_LIB/vector.c **** 	ASSERT(NULL != vector_ptr);
 636              		.loc 1 138 0
 637 0304 FB68     		ldr	r3, [r7, #12]
 638 0306 002B     		cmp	r3, #0
 639 0308 03D1     		bne	.L43
 640              		.loc 1 138 0 is_stmt 0 discriminator 1
 641 030a 8A21     		movs	r1, #138
 642 030c 1B48     		ldr	r0, .L49
 643 030e FFF7FEFF 		bl	_ASSERT
 644              	.L43:
 139:../../source/src/kernel/OS_LIB/vector.c **** 	ASSERT(NULL != data_store_ptr);
 645              		.loc 1 139 0 is_stmt 1
 646 0312 7B68     		ldr	r3, [r7, #4]
 647 0314 002B     		cmp	r3, #0
 648 0316 03D1     		bne	.L44
 649              		.loc 1 139 0 is_stmt 0 discriminator 1
 650 0318 8B21     		movs	r1, #139
 651 031a 1848     		ldr	r0, .L49
 652 031c FFF7FEFF 		bl	_ASSERT
 653              	.L44:
 140:../../source/src/kernel/OS_LIB/vector.c **** #if CONFIG_PARA_CHECK
 141:../../source/src/kernel/OS_LIB/vector.c **** 	if((NULL == vector_ptr) || (NULL == data_store_ptr))
 654              		.loc 1 141 0 is_stmt 1
 655 0320 FB68     		ldr	r3, [r7, #12]
 656 0322 002B     		cmp	r3, #0
 657 0324 02D0     		beq	.L45
 658              		.loc 1 141 0 is_stmt 0 discriminator 1
 659 0326 7B68     		ldr	r3, [r7, #4]
 660 0328 002B     		cmp	r3, #0
ARM GAS  G:\Users\Jaxb\AppData\Local\Temp\ccUb5Hmi.s 			page 16


 661 032a 08D1     		bne	.L46
 662              	.L45:
 142:../../source/src/kernel/OS_LIB/vector.c **** 	{
 143:../../source/src/kernel/OS_LIB/vector.c **** 		OS_ERROR_PARA_MESSAGE_DISPLAY(Vector_get_index_data,vector_ptr);
 663              		.loc 1 143 0 is_stmt 1
 664 032c 1448     		ldr	r0, .L49+4
 665 032e FFF7FEFF 		bl	ka_printf
 144:../../source/src/kernel/OS_LIB/vector.c **** 		OS_ERROR_PARA_MESSAGE_DISPLAY(Vector_get_index_data,data_store_ptr);
 666              		.loc 1 144 0
 667 0332 1448     		ldr	r0, .L49+8
 668 0334 FFF7FEFF 		bl	ka_printf
 145:../../source/src/kernel/OS_LIB/vector.c **** 		return -ERROR_NULL_INPUT_PTR;
 669              		.loc 1 145 0
 670 0338 6FF0FE03 		mvn	r3, #254
 671 033c 19E0     		b	.L47
 672              	.L46:
 146:../../source/src/kernel/OS_LIB/vector.c **** 	}
 147:../../source/src/kernel/OS_LIB/vector.c **** 	if(index >= vector_ptr->max_len)
 673              		.loc 1 147 0
 674 033e FB68     		ldr	r3, [r7, #12]
 675 0340 5B68     		ldr	r3, [r3, #4]
 676 0342 BA68     		ldr	r2, [r7, #8]
 677 0344 9A42     		cmp	r2, r3
 678 0346 05D3     		bcc	.L48
 148:../../source/src/kernel/OS_LIB/vector.c **** 	{
 149:../../source/src/kernel/OS_LIB/vector.c **** 		OS_ERROR_PARA_MESSAGE_DISPLAY(Vector_get_index_data,index);
 679              		.loc 1 149 0
 680 0348 0F48     		ldr	r0, .L49+12
 681 034a FFF7FEFF 		bl	ka_printf
 150:../../source/src/kernel/OS_LIB/vector.c **** 		return -ERROR_VALUELESS_INPUT;
 682              		.loc 1 150 0
 683 034e 6FF0FD03 		mvn	r3, #253
 684 0352 0EE0     		b	.L47
 685              	.L48:
 151:../../source/src/kernel/OS_LIB/vector.c **** 	}
 152:../../source/src/kernel/OS_LIB/vector.c **** #endif
 153:../../source/src/kernel/OS_LIB/vector.c **** 	f_memcpy(data_store_ptr,(char*)(vector_ptr->data_ptr) + index * vector_ptr->data_size,vector_ptr->
 686              		.loc 1 153 0
 687 0354 FB68     		ldr	r3, [r7, #12]
 688 0356 1A68     		ldr	r2, [r3]
 689 0358 FB68     		ldr	r3, [r7, #12]
 690 035a DB68     		ldr	r3, [r3, #12]
 691 035c B968     		ldr	r1, [r7, #8]
 692 035e 01FB03F3 		mul	r3, r1, r3
 693 0362 D118     		adds	r1, r2, r3
 694 0364 FB68     		ldr	r3, [r7, #12]
 695 0366 DB68     		ldr	r3, [r3, #12]
 696 0368 1A46     		mov	r2, r3
 697 036a 7868     		ldr	r0, [r7, #4]
 698 036c FFF7FEFF 		bl	ka_memcpy
 154:../../source/src/kernel/OS_LIB/vector.c **** 	return FUN_EXECUTE_SUCCESSFULLY;
 699              		.loc 1 154 0
 700 0370 0023     		movs	r3, #0
 701              	.L47:
 155:../../source/src/kernel/OS_LIB/vector.c **** }
 702              		.loc 1 155 0
 703 0372 1846     		mov	r0, r3
ARM GAS  G:\Users\Jaxb\AppData\Local\Temp\ccUb5Hmi.s 			page 17


 704 0374 1037     		adds	r7, r7, #16
 705              	.LCFI23:
 706              		.cfi_def_cfa_offset 8
 707 0376 BD46     		mov	sp, r7
 708              	.LCFI24:
 709              		.cfi_def_cfa_register 13
 710              		@ sp needed
 711 0378 80BD     		pop	{r7, pc}
 712              	.L50:
 713 037a 00BF     		.align	2
 714              	.L49:
 715 037c 00000000 		.word	.LC0
 716 0380 50010000 		.word	.LC6
 717 0384 90010000 		.word	.LC7
 718 0388 D4010000 		.word	.LC8
 719              		.cfi_endproc
 720              	.LFE6:
 721              		.size	Vector_get_index_data, .-Vector_get_index_data
 722              		.section	.rodata
 723 020f 00       		.align	2
 724              	.LC9:
 725 0210 6572726F 		.ascii	"error fun name : Vector_set_index_data\012error par"
 725      72206675 
 725      6E206E61 
 725      6D65203A 
 725      20566563 
 726 0240 61203A20 		.ascii	"a : vector_ptr\012\000"
 726      76656374 
 726      6F725F70 
 726      74720A00 
 727              		.align	2
 728              	.LC10:
 729 0250 6572726F 		.ascii	"error fun name : Vector_set_index_data\012error par"
 729      72206675 
 729      6E206E61 
 729      6D65203A 
 729      20566563 
 730 0280 61203A20 		.ascii	"a : data_store_ptr\012\000"
 730      64617461 
 730      5F73746F 
 730      72655F70 
 730      74720A00 
 731              		.align	2
 732              	.LC11:
 733 0294 6572726F 		.ascii	"error fun name : Vector_set_index_data\012error par"
 733      72206675 
 733      6E206E61 
 733      6D65203A 
 733      20566563 
 734 02c4 61203A20 		.ascii	"a : index\012\000"
 734      696E6465 
 734      780A00
 735              		.text
 736              		.align	1
 737              		.global	Vector_set_index_data
 738              		.syntax unified
 739              		.thumb
ARM GAS  G:\Users\Jaxb\AppData\Local\Temp\ccUb5Hmi.s 			page 18


 740              		.thumb_func
 741              		.fpu softvfp
 742              		.type	Vector_set_index_data, %function
 743              	Vector_set_index_data:
 744              	.LFB7:
 156:../../source/src/kernel/OS_LIB/vector.c **** 
 157:../../source/src/kernel/OS_LIB/vector.c **** /*
 158:../../source/src/kernel/OS_LIB/vector.c **** set vector[index] data with *data_store_ptr
 159:../../source/src/kernel/OS_LIB/vector.c ****  */
 160:../../source/src/kernel/OS_LIB/vector.c **** int Vector_set_index_data(Vector *vector_ptr,unsigned int index,void *data_store_ptr)
 161:../../source/src/kernel/OS_LIB/vector.c **** {
 745              		.loc 1 161 0
 746              		.cfi_startproc
 747              		@ args = 0, pretend = 0, frame = 16
 748              		@ frame_needed = 1, uses_anonymous_args = 0
 749 038c 80B5     		push	{r7, lr}
 750              	.LCFI25:
 751              		.cfi_def_cfa_offset 8
 752              		.cfi_offset 7, -8
 753              		.cfi_offset 14, -4
 754 038e 84B0     		sub	sp, sp, #16
 755              	.LCFI26:
 756              		.cfi_def_cfa_offset 24
 757 0390 00AF     		add	r7, sp, #0
 758              	.LCFI27:
 759              		.cfi_def_cfa_register 7
 760 0392 F860     		str	r0, [r7, #12]
 761 0394 B960     		str	r1, [r7, #8]
 762 0396 7A60     		str	r2, [r7, #4]
 162:../../source/src/kernel/OS_LIB/vector.c **** 	ASSERT(NULL != vector_ptr);
 763              		.loc 1 162 0
 764 0398 FB68     		ldr	r3, [r7, #12]
 765 039a 002B     		cmp	r3, #0
 766 039c 03D1     		bne	.L52
 767              		.loc 1 162 0 is_stmt 0 discriminator 1
 768 039e A221     		movs	r1, #162
 769 03a0 1B48     		ldr	r0, .L58
 770 03a2 FFF7FEFF 		bl	_ASSERT
 771              	.L52:
 163:../../source/src/kernel/OS_LIB/vector.c **** 	ASSERT(NULL != data_store_ptr);
 772              		.loc 1 163 0 is_stmt 1
 773 03a6 7B68     		ldr	r3, [r7, #4]
 774 03a8 002B     		cmp	r3, #0
 775 03aa 03D1     		bne	.L53
 776              		.loc 1 163 0 is_stmt 0 discriminator 1
 777 03ac A321     		movs	r1, #163
 778 03ae 1848     		ldr	r0, .L58
 779 03b0 FFF7FEFF 		bl	_ASSERT
 780              	.L53:
 164:../../source/src/kernel/OS_LIB/vector.c **** #if CONFIG_PARA_CHECK
 165:../../source/src/kernel/OS_LIB/vector.c **** 	if((NULL == vector_ptr) || (NULL == data_store_ptr))
 781              		.loc 1 165 0 is_stmt 1
 782 03b4 FB68     		ldr	r3, [r7, #12]
 783 03b6 002B     		cmp	r3, #0
 784 03b8 02D0     		beq	.L54
 785              		.loc 1 165 0 is_stmt 0 discriminator 1
 786 03ba 7B68     		ldr	r3, [r7, #4]
ARM GAS  G:\Users\Jaxb\AppData\Local\Temp\ccUb5Hmi.s 			page 19


 787 03bc 002B     		cmp	r3, #0
 788 03be 08D1     		bne	.L55
 789              	.L54:
 166:../../source/src/kernel/OS_LIB/vector.c **** 	{
 167:../../source/src/kernel/OS_LIB/vector.c **** 		OS_ERROR_PARA_MESSAGE_DISPLAY(Vector_set_index_data,vector_ptr);
 790              		.loc 1 167 0 is_stmt 1
 791 03c0 1448     		ldr	r0, .L58+4
 792 03c2 FFF7FEFF 		bl	ka_printf
 168:../../source/src/kernel/OS_LIB/vector.c **** 		OS_ERROR_PARA_MESSAGE_DISPLAY(Vector_set_index_data,data_store_ptr);
 793              		.loc 1 168 0
 794 03c6 1448     		ldr	r0, .L58+8
 795 03c8 FFF7FEFF 		bl	ka_printf
 169:../../source/src/kernel/OS_LIB/vector.c **** 		return -ERROR_NULL_INPUT_PTR;
 796              		.loc 1 169 0
 797 03cc 6FF0FE03 		mvn	r3, #254
 798 03d0 19E0     		b	.L56
 799              	.L55:
 170:../../source/src/kernel/OS_LIB/vector.c **** 	}
 171:../../source/src/kernel/OS_LIB/vector.c **** 	if(index >= vector_ptr->max_len)
 800              		.loc 1 171 0
 801 03d2 FB68     		ldr	r3, [r7, #12]
 802 03d4 5B68     		ldr	r3, [r3, #4]
 803 03d6 BA68     		ldr	r2, [r7, #8]
 804 03d8 9A42     		cmp	r2, r3
 805 03da 05D3     		bcc	.L57
 172:../../source/src/kernel/OS_LIB/vector.c **** 	{
 173:../../source/src/kernel/OS_LIB/vector.c **** 		OS_ERROR_PARA_MESSAGE_DISPLAY(Vector_set_index_data,index);
 806              		.loc 1 173 0
 807 03dc 0F48     		ldr	r0, .L58+12
 808 03de FFF7FEFF 		bl	ka_printf
 174:../../source/src/kernel/OS_LIB/vector.c **** 		return -ERROR_VALUELESS_INPUT;
 809              		.loc 1 174 0
 810 03e2 6FF0FD03 		mvn	r3, #253
 811 03e6 0EE0     		b	.L56
 812              	.L57:
 175:../../source/src/kernel/OS_LIB/vector.c **** 	}
 176:../../source/src/kernel/OS_LIB/vector.c **** #endif
 177:../../source/src/kernel/OS_LIB/vector.c **** 	f_memcpy((char*)(vector_ptr->data_ptr) + index * vector_ptr->data_size,data_store_ptr,vector_ptr->
 813              		.loc 1 177 0
 814 03e8 FB68     		ldr	r3, [r7, #12]
 815 03ea 1A68     		ldr	r2, [r3]
 816 03ec FB68     		ldr	r3, [r7, #12]
 817 03ee DB68     		ldr	r3, [r3, #12]
 818 03f0 B968     		ldr	r1, [r7, #8]
 819 03f2 01FB03F3 		mul	r3, r1, r3
 820 03f6 D018     		adds	r0, r2, r3
 821 03f8 FB68     		ldr	r3, [r7, #12]
 822 03fa DB68     		ldr	r3, [r3, #12]
 823 03fc 1A46     		mov	r2, r3
 824 03fe 7968     		ldr	r1, [r7, #4]
 825 0400 FFF7FEFF 		bl	ka_memcpy
 178:../../source/src/kernel/OS_LIB/vector.c **** 	return FUN_EXECUTE_SUCCESSFULLY;
 826              		.loc 1 178 0
 827 0404 0023     		movs	r3, #0
 828              	.L56:
 179:../../source/src/kernel/OS_LIB/vector.c **** }
 829              		.loc 1 179 0
ARM GAS  G:\Users\Jaxb\AppData\Local\Temp\ccUb5Hmi.s 			page 20


 830 0406 1846     		mov	r0, r3
 831 0408 1037     		adds	r7, r7, #16
 832              	.LCFI28:
 833              		.cfi_def_cfa_offset 8
 834 040a BD46     		mov	sp, r7
 835              	.LCFI29:
 836              		.cfi_def_cfa_register 13
 837              		@ sp needed
 838 040c 80BD     		pop	{r7, pc}
 839              	.L59:
 840 040e 00BF     		.align	2
 841              	.L58:
 842 0410 00000000 		.word	.LC0
 843 0414 10020000 		.word	.LC9
 844 0418 50020000 		.word	.LC10
 845 041c 94020000 		.word	.LC11
 846              		.cfi_endproc
 847              	.LFE7:
 848              		.size	Vector_set_index_data, .-Vector_set_index_data
 849              		.section	.rodata
 850 02cf 00       		.align	2
 851              	.LC12:
 852 02d0 6572726F 		.ascii	"error fun name : Vector_get_index_address\012error "
 852      72206675 
 852      6E206E61 
 852      6D65203A 
 852      20566563 
 853 0300 70617261 		.ascii	"para : vector_ptr\012\000"
 853      203A2076 
 853      6563746F 
 853      725F7074 
 853      720A00
 854 0313 00       		.align	2
 855              	.LC13:
 856 0314 6572726F 		.ascii	"error fun name : Vector_get_index_address\012error "
 856      72206675 
 856      6E206E61 
 856      6D65203A 
 856      20566563 
 857 0344 70617261 		.ascii	"para : data_add_ptr\012\000"
 857      203A2064 
 857      6174615F 
 857      6164645F 
 857      7074720A 
 858 0359 000000   		.align	2
 859              	.LC14:
 860 035c 6572726F 		.ascii	"error fun name : Vector_get_index_address\012error "
 860      72206675 
 860      6E206E61 
 860      6D65203A 
 860      20566563 
 861 038c 70617261 		.ascii	"para : index\012\000"
 861      203A2069 
 861      6E646578 
 861      0A00
 862              		.text
 863              		.align	1
ARM GAS  G:\Users\Jaxb\AppData\Local\Temp\ccUb5Hmi.s 			page 21


 864              		.global	Vector_get_index_address
 865              		.syntax unified
 866              		.thumb
 867              		.thumb_func
 868              		.fpu softvfp
 869              		.type	Vector_get_index_address, %function
 870              	Vector_get_index_address:
 871              	.LFB8:
 180:../../source/src/kernel/OS_LIB/vector.c **** 
 181:../../source/src/kernel/OS_LIB/vector.c **** int Vector_get_index_address(Vector *vector_ptr,unsigned int index,void **data_add_ptr)
 182:../../source/src/kernel/OS_LIB/vector.c **** {
 872              		.loc 1 182 0
 873              		.cfi_startproc
 874              		@ args = 0, pretend = 0, frame = 16
 875              		@ frame_needed = 1, uses_anonymous_args = 0
 876 0420 80B5     		push	{r7, lr}
 877              	.LCFI30:
 878              		.cfi_def_cfa_offset 8
 879              		.cfi_offset 7, -8
 880              		.cfi_offset 14, -4
 881 0422 84B0     		sub	sp, sp, #16
 882              	.LCFI31:
 883              		.cfi_def_cfa_offset 24
 884 0424 00AF     		add	r7, sp, #0
 885              	.LCFI32:
 886              		.cfi_def_cfa_register 7
 887 0426 F860     		str	r0, [r7, #12]
 888 0428 B960     		str	r1, [r7, #8]
 889 042a 7A60     		str	r2, [r7, #4]
 183:../../source/src/kernel/OS_LIB/vector.c **** 	ASSERT(NULL != vector_ptr);
 890              		.loc 1 183 0
 891 042c FB68     		ldr	r3, [r7, #12]
 892 042e 002B     		cmp	r3, #0
 893 0430 03D1     		bne	.L61
 894              		.loc 1 183 0 is_stmt 0 discriminator 1
 895 0432 B721     		movs	r1, #183
 896 0434 1948     		ldr	r0, .L67
 897 0436 FFF7FEFF 		bl	_ASSERT
 898              	.L61:
 184:../../source/src/kernel/OS_LIB/vector.c **** 	ASSERT(NULL != data_add_ptr);
 899              		.loc 1 184 0 is_stmt 1
 900 043a 7B68     		ldr	r3, [r7, #4]
 901 043c 002B     		cmp	r3, #0
 902 043e 03D1     		bne	.L62
 903              		.loc 1 184 0 is_stmt 0 discriminator 1
 904 0440 B821     		movs	r1, #184
 905 0442 1648     		ldr	r0, .L67
 906 0444 FFF7FEFF 		bl	_ASSERT
 907              	.L62:
 185:../../source/src/kernel/OS_LIB/vector.c **** #if CONFIG_PARA_CHECK
 186:../../source/src/kernel/OS_LIB/vector.c **** 	if((NULL == vector_ptr) || (NULL == data_add_ptr))
 908              		.loc 1 186 0 is_stmt 1
 909 0448 FB68     		ldr	r3, [r7, #12]
 910 044a 002B     		cmp	r3, #0
 911 044c 02D0     		beq	.L63
 912              		.loc 1 186 0 is_stmt 0 discriminator 1
 913 044e 7B68     		ldr	r3, [r7, #4]
ARM GAS  G:\Users\Jaxb\AppData\Local\Temp\ccUb5Hmi.s 			page 22


 914 0450 002B     		cmp	r3, #0
 915 0452 08D1     		bne	.L64
 916              	.L63:
 187:../../source/src/kernel/OS_LIB/vector.c **** 	{
 188:../../source/src/kernel/OS_LIB/vector.c **** 		OS_ERROR_PARA_MESSAGE_DISPLAY(Vector_get_index_address,vector_ptr);
 917              		.loc 1 188 0 is_stmt 1
 918 0454 1248     		ldr	r0, .L67+4
 919 0456 FFF7FEFF 		bl	ka_printf
 189:../../source/src/kernel/OS_LIB/vector.c **** 		OS_ERROR_PARA_MESSAGE_DISPLAY(Vector_get_index_address,data_add_ptr);
 920              		.loc 1 189 0
 921 045a 1248     		ldr	r0, .L67+8
 922 045c FFF7FEFF 		bl	ka_printf
 190:../../source/src/kernel/OS_LIB/vector.c **** 		return -ERROR_NULL_INPUT_PTR;
 923              		.loc 1 190 0
 924 0460 6FF0FE03 		mvn	r3, #254
 925 0464 15E0     		b	.L65
 926              	.L64:
 191:../../source/src/kernel/OS_LIB/vector.c **** 	}
 192:../../source/src/kernel/OS_LIB/vector.c **** 	if(index >= vector_ptr->max_len)
 927              		.loc 1 192 0
 928 0466 FB68     		ldr	r3, [r7, #12]
 929 0468 5B68     		ldr	r3, [r3, #4]
 930 046a BA68     		ldr	r2, [r7, #8]
 931 046c 9A42     		cmp	r2, r3
 932 046e 05D3     		bcc	.L66
 193:../../source/src/kernel/OS_LIB/vector.c **** 	{
 194:../../source/src/kernel/OS_LIB/vector.c **** 		OS_ERROR_PARA_MESSAGE_DISPLAY(Vector_get_index_address,index);
 933              		.loc 1 194 0
 934 0470 0D48     		ldr	r0, .L67+12
 935 0472 FFF7FEFF 		bl	ka_printf
 195:../../source/src/kernel/OS_LIB/vector.c **** 		return -ERROR_VALUELESS_INPUT;
 936              		.loc 1 195 0
 937 0476 6FF0FD03 		mvn	r3, #253
 938 047a 0AE0     		b	.L65
 939              	.L66:
 196:../../source/src/kernel/OS_LIB/vector.c **** 	}
 197:../../source/src/kernel/OS_LIB/vector.c **** #endif
 198:../../source/src/kernel/OS_LIB/vector.c **** 	*data_add_ptr = (void *)((char*)(vector_ptr->data_ptr) + index * vector_ptr->data_size);
 940              		.loc 1 198 0
 941 047c FB68     		ldr	r3, [r7, #12]
 942 047e 1A68     		ldr	r2, [r3]
 943 0480 FB68     		ldr	r3, [r7, #12]
 944 0482 DB68     		ldr	r3, [r3, #12]
 945 0484 B968     		ldr	r1, [r7, #8]
 946 0486 01FB03F3 		mul	r3, r1, r3
 947 048a 1A44     		add	r2, r2, r3
 948 048c 7B68     		ldr	r3, [r7, #4]
 949 048e 1A60     		str	r2, [r3]
 199:../../source/src/kernel/OS_LIB/vector.c **** 	return FUN_EXECUTE_SUCCESSFULLY;
 950              		.loc 1 199 0
 951 0490 0023     		movs	r3, #0
 952              	.L65:
 200:../../source/src/kernel/OS_LIB/vector.c **** }
 953              		.loc 1 200 0
 954 0492 1846     		mov	r0, r3
 955 0494 1037     		adds	r7, r7, #16
 956              	.LCFI33:
ARM GAS  G:\Users\Jaxb\AppData\Local\Temp\ccUb5Hmi.s 			page 23


 957              		.cfi_def_cfa_offset 8
 958 0496 BD46     		mov	sp, r7
 959              	.LCFI34:
 960              		.cfi_def_cfa_register 13
 961              		@ sp needed
 962 0498 80BD     		pop	{r7, pc}
 963              	.L68:
 964 049a 00BF     		.align	2
 965              	.L67:
 966 049c 00000000 		.word	.LC0
 967 04a0 D0020000 		.word	.LC12
 968 04a4 14030000 		.word	.LC13
 969 04a8 5C030000 		.word	.LC14
 970              		.cfi_endproc
 971              	.LFE8:
 972              		.size	Vector_get_index_address, .-Vector_get_index_address
 973              		.section	.rodata
 974 039a 0000     		.align	2
 975              	.LC15:
 976 039c 6572726F 		.ascii	"error fun name : Vector_delete\012error para : vect"
 976      72206675 
 976      6E206E61 
 976      6D65203A 
 976      20566563 
 977 03cc 6F725F70 		.ascii	"or_ptr\012\000"
 977      74720A00 
 978              		.text
 979              		.align	1
 980              		.global	Vector_delete
 981              		.syntax unified
 982              		.thumb
 983              		.thumb_func
 984              		.fpu softvfp
 985              		.type	Vector_delete, %function
 986              	Vector_delete:
 987              	.LFB9:
 201:../../source/src/kernel/OS_LIB/vector.c **** 
 202:../../source/src/kernel/OS_LIB/vector.c **** /*
 203:../../source/src/kernel/OS_LIB/vector.c **** delete vector
 204:../../source/src/kernel/OS_LIB/vector.c ****  */
 205:../../source/src/kernel/OS_LIB/vector.c **** inline int Vector_delete(Vector *vector_ptr)
 206:../../source/src/kernel/OS_LIB/vector.c **** {
 988              		.loc 1 206 0
 989              		.cfi_startproc
 990              		@ args = 0, pretend = 0, frame = 8
 991              		@ frame_needed = 1, uses_anonymous_args = 0
 992 04ac 80B5     		push	{r7, lr}
 993              	.LCFI35:
 994              		.cfi_def_cfa_offset 8
 995              		.cfi_offset 7, -8
 996              		.cfi_offset 14, -4
 997 04ae 82B0     		sub	sp, sp, #8
 998              	.LCFI36:
 999              		.cfi_def_cfa_offset 16
 1000 04b0 00AF     		add	r7, sp, #0
 1001              	.LCFI37:
 1002              		.cfi_def_cfa_register 7
ARM GAS  G:\Users\Jaxb\AppData\Local\Temp\ccUb5Hmi.s 			page 24


 1003 04b2 7860     		str	r0, [r7, #4]
 207:../../source/src/kernel/OS_LIB/vector.c **** 	ASSERT(NULL != vector_ptr);
 1004              		.loc 1 207 0
 1005 04b4 7B68     		ldr	r3, [r7, #4]
 1006 04b6 002B     		cmp	r3, #0
 1007 04b8 03D1     		bne	.L70
 1008              		.loc 1 207 0 is_stmt 0 discriminator 1
 1009 04ba CF21     		movs	r1, #207
 1010 04bc 0A48     		ldr	r0, .L73
 1011 04be FFF7FEFF 		bl	_ASSERT
 1012              	.L70:
 208:../../source/src/kernel/OS_LIB/vector.c **** #if CONFIG_PARA_CHECK
 209:../../source/src/kernel/OS_LIB/vector.c **** 	if(NULL == vector_ptr)
 1013              		.loc 1 209 0 is_stmt 1
 1014 04c2 7B68     		ldr	r3, [r7, #4]
 1015 04c4 002B     		cmp	r3, #0
 1016 04c6 05D1     		bne	.L71
 210:../../source/src/kernel/OS_LIB/vector.c **** 	{
 211:../../source/src/kernel/OS_LIB/vector.c **** 		OS_ERROR_PARA_MESSAGE_DISPLAY(Vector_delete,vector_ptr);
 1017              		.loc 1 211 0
 1018 04c8 0848     		ldr	r0, .L73+4
 1019 04ca FFF7FEFF 		bl	ka_printf
 212:../../source/src/kernel/OS_LIB/vector.c **** 		return -ERROR_NULL_INPUT_PTR;
 1020              		.loc 1 212 0
 1021 04ce 6FF0FE03 		mvn	r3, #254
 1022 04d2 05E0     		b	.L72
 1023              	.L71:
 213:../../source/src/kernel/OS_LIB/vector.c **** 	}
 214:../../source/src/kernel/OS_LIB/vector.c **** #endif
 215:../../source/src/kernel/OS_LIB/vector.c **** 	f_free(vector_ptr->data_ptr);
 1024              		.loc 1 215 0
 1025 04d4 7B68     		ldr	r3, [r7, #4]
 1026 04d6 1B68     		ldr	r3, [r3]
 1027 04d8 1846     		mov	r0, r3
 1028 04da FFF7FEFF 		bl	ka_free
 216:../../source/src/kernel/OS_LIB/vector.c **** 	return FUN_EXECUTE_SUCCESSFULLY;
 1029              		.loc 1 216 0
 1030 04de 0023     		movs	r3, #0
 1031              	.L72:
 217:../../source/src/kernel/OS_LIB/vector.c **** }
 1032              		.loc 1 217 0
 1033 04e0 1846     		mov	r0, r3
 1034 04e2 0837     		adds	r7, r7, #8
 1035              	.LCFI38:
 1036              		.cfi_def_cfa_offset 8
 1037 04e4 BD46     		mov	sp, r7
 1038              	.LCFI39:
 1039              		.cfi_def_cfa_register 13
 1040              		@ sp needed
 1041 04e6 80BD     		pop	{r7, pc}
 1042              	.L74:
 1043              		.align	2
 1044              	.L73:
 1045 04e8 00000000 		.word	.LC0
 1046 04ec 9C030000 		.word	.LC15
 1047              		.cfi_endproc
 1048              	.LFE9:
ARM GAS  G:\Users\Jaxb\AppData\Local\Temp\ccUb5Hmi.s 			page 25


 1049              		.size	Vector_delete, .-Vector_delete
 1050              		.section	.rodata
 1051              		.align	2
 1052              	.LC16:
 1053 03d4 6572726F 		.ascii	"error fun name : Vector_erase_data\012error para : "
 1053      72206675 
 1053      6E206E61 
 1053      6D65203A 
 1053      20566563 
 1054 0404 76656374 		.ascii	"vector_ptr\012\000"
 1054      6F725F70 
 1054      74720A00 
 1055              		.align	2
 1056              	.LC17:
 1057 0410 6572726F 		.ascii	"error fun name : Vector_erase_data\012error para : "
 1057      72206675 
 1057      6E206E61 
 1057      6D65203A 
 1057      20566563 
 1058 0440 66726F6D 		.ascii	"from\012\000"
 1058      0A00
 1059 0446 0000     		.align	2
 1060              	.LC18:
 1061 0448 6572726F 		.ascii	"error fun name : Vector_erase_data\012error para : "
 1061      72206675 
 1061      6E206E61 
 1061      6D65203A 
 1061      20566563 
 1062 0478 746F0A00 		.ascii	"to\012\000"
 1063              		.text
 1064              		.align	1
 1065              		.global	Vector_erase_data
 1066              		.syntax unified
 1067              		.thumb
 1068              		.thumb_func
 1069              		.fpu softvfp
 1070              		.type	Vector_erase_data, %function
 1071              	Vector_erase_data:
 1072              	.LFB10:
 218:../../source/src/kernel/OS_LIB/vector.c **** 
 219:../../source/src/kernel/OS_LIB/vector.c **** /*
 220:../../source/src/kernel/OS_LIB/vector.c **** delete the data between index "from" to "to"
 221:../../source/src/kernel/OS_LIB/vector.c ****  */
 222:../../source/src/kernel/OS_LIB/vector.c **** int Vector_erase_data(Vector *vector_ptr,unsigned int from,unsigned int to)
 223:../../source/src/kernel/OS_LIB/vector.c **** {
 1073              		.loc 1 223 0
 1074              		.cfi_startproc
 1075              		@ args = 0, pretend = 0, frame = 16
 1076              		@ frame_needed = 1, uses_anonymous_args = 0
 1077 04f0 80B5     		push	{r7, lr}
 1078              	.LCFI40:
 1079              		.cfi_def_cfa_offset 8
 1080              		.cfi_offset 7, -8
 1081              		.cfi_offset 14, -4
 1082 04f2 84B0     		sub	sp, sp, #16
 1083              	.LCFI41:
 1084              		.cfi_def_cfa_offset 24
ARM GAS  G:\Users\Jaxb\AppData\Local\Temp\ccUb5Hmi.s 			page 26


 1085 04f4 00AF     		add	r7, sp, #0
 1086              	.LCFI42:
 1087              		.cfi_def_cfa_register 7
 1088 04f6 F860     		str	r0, [r7, #12]
 1089 04f8 B960     		str	r1, [r7, #8]
 1090 04fa 7A60     		str	r2, [r7, #4]
 224:../../source/src/kernel/OS_LIB/vector.c **** 	ASSERT(NULL != vector_ptr);
 1091              		.loc 1 224 0
 1092 04fc FB68     		ldr	r3, [r7, #12]
 1093 04fe 002B     		cmp	r3, #0
 1094 0500 03D1     		bne	.L76
 1095              		.loc 1 224 0 is_stmt 0 discriminator 1
 1096 0502 E021     		movs	r1, #224
 1097 0504 2F48     		ldr	r0, .L83
 1098 0506 FFF7FEFF 		bl	_ASSERT
 1099              	.L76:
 225:../../source/src/kernel/OS_LIB/vector.c **** #if CONFIG_PARA_CHECK
 226:../../source/src/kernel/OS_LIB/vector.c **** 	if(NULL == vector_ptr)
 1100              		.loc 1 226 0 is_stmt 1
 1101 050a FB68     		ldr	r3, [r7, #12]
 1102 050c 002B     		cmp	r3, #0
 1103 050e 05D1     		bne	.L77
 227:../../source/src/kernel/OS_LIB/vector.c **** 	{
 228:../../source/src/kernel/OS_LIB/vector.c **** 		OS_ERROR_PARA_MESSAGE_DISPLAY(Vector_erase_data,vector_ptr);
 1104              		.loc 1 228 0
 1105 0510 2D48     		ldr	r0, .L83+4
 1106 0512 FFF7FEFF 		bl	ka_printf
 229:../../source/src/kernel/OS_LIB/vector.c **** 		return -ERROR_NULL_INPUT_PTR;
 1107              		.loc 1 229 0
 1108 0516 6FF0FE03 		mvn	r3, #254
 1109 051a 4FE0     		b	.L78
 1110              	.L77:
 230:../../source/src/kernel/OS_LIB/vector.c **** 	}
 231:../../source/src/kernel/OS_LIB/vector.c **** #endif
 232:../../source/src/kernel/OS_LIB/vector.c **** 	ASSERT(from <= to);
 1111              		.loc 1 232 0
 1112 051c BA68     		ldr	r2, [r7, #8]
 1113 051e 7B68     		ldr	r3, [r7, #4]
 1114 0520 9A42     		cmp	r2, r3
 1115 0522 03D9     		bls	.L79
 1116              		.loc 1 232 0 is_stmt 0 discriminator 1
 1117 0524 E821     		movs	r1, #232
 1118 0526 2748     		ldr	r0, .L83
 1119 0528 FFF7FEFF 		bl	_ASSERT
 1120              	.L79:
 233:../../source/src/kernel/OS_LIB/vector.c **** #if CONFIG_PARA_CHECK
 234:../../source/src/kernel/OS_LIB/vector.c **** 	if(from > to)
 1121              		.loc 1 234 0 is_stmt 1
 1122 052c BA68     		ldr	r2, [r7, #8]
 1123 052e 7B68     		ldr	r3, [r7, #4]
 1124 0530 9A42     		cmp	r2, r3
 1125 0532 08D9     		bls	.L80
 235:../../source/src/kernel/OS_LIB/vector.c **** 	{
 236:../../source/src/kernel/OS_LIB/vector.c **** 		OS_ERROR_PARA_MESSAGE_DISPLAY(Vector_erase_data,from);
 1126              		.loc 1 236 0
 1127 0534 2548     		ldr	r0, .L83+8
 1128 0536 FFF7FEFF 		bl	ka_printf
ARM GAS  G:\Users\Jaxb\AppData\Local\Temp\ccUb5Hmi.s 			page 27


 237:../../source/src/kernel/OS_LIB/vector.c **** 		OS_ERROR_PARA_MESSAGE_DISPLAY(Vector_erase_data,to);
 1129              		.loc 1 237 0
 1130 053a 2548     		ldr	r0, .L83+12
 1131 053c FFF7FEFF 		bl	ka_printf
 238:../../source/src/kernel/OS_LIB/vector.c **** 		return -ERROR_VALUELESS_INPUT;
 1132              		.loc 1 238 0
 1133 0540 6FF0FD03 		mvn	r3, #253
 1134 0544 3AE0     		b	.L78
 1135              	.L80:
 239:../../source/src/kernel/OS_LIB/vector.c **** 	}
 240:../../source/src/kernel/OS_LIB/vector.c **** #endif
 241:../../source/src/kernel/OS_LIB/vector.c **** 	//else (from <= to)
 242:../../source/src/kernel/OS_LIB/vector.c **** 	ASSERT(to < vector_ptr->cur_len);
 1136              		.loc 1 242 0
 1137 0546 FB68     		ldr	r3, [r7, #12]
 1138 0548 9B68     		ldr	r3, [r3, #8]
 1139 054a 7A68     		ldr	r2, [r7, #4]
 1140 054c 9A42     		cmp	r2, r3
 1141 054e 03D3     		bcc	.L81
 1142              		.loc 1 242 0 is_stmt 0 discriminator 1
 1143 0550 F221     		movs	r1, #242
 1144 0552 1C48     		ldr	r0, .L83
 1145 0554 FFF7FEFF 		bl	_ASSERT
 1146              	.L81:
 243:../../source/src/kernel/OS_LIB/vector.c **** #if CONFIG_PARA_CHECK
 244:../../source/src/kernel/OS_LIB/vector.c **** 	if(to >= vector_ptr->cur_len)
 1147              		.loc 1 244 0 is_stmt 1
 1148 0558 FB68     		ldr	r3, [r7, #12]
 1149 055a 9B68     		ldr	r3, [r3, #8]
 1150 055c 7A68     		ldr	r2, [r7, #4]
 1151 055e 9A42     		cmp	r2, r3
 1152 0560 05D3     		bcc	.L82
 245:../../source/src/kernel/OS_LIB/vector.c **** 	{
 246:../../source/src/kernel/OS_LIB/vector.c **** 		OS_ERROR_PARA_MESSAGE_DISPLAY(Vector_erase_data,to);
 1153              		.loc 1 246 0
 1154 0562 1B48     		ldr	r0, .L83+12
 1155 0564 FFF7FEFF 		bl	ka_printf
 247:../../source/src/kernel/OS_LIB/vector.c **** 		return -ERROR_VALUELESS_INPUT;
 1156              		.loc 1 247 0
 1157 0568 6FF0FD03 		mvn	r3, #253
 1158 056c 26E0     		b	.L78
 1159              	.L82:
 248:../../source/src/kernel/OS_LIB/vector.c **** 	}
 249:../../source/src/kernel/OS_LIB/vector.c **** #endif
 250:../../source/src/kernel/OS_LIB/vector.c **** 	f_memcpy((char*)(vector_ptr->data_ptr) + from * vector_ptr->data_size,
 1160              		.loc 1 250 0
 1161 056e FB68     		ldr	r3, [r7, #12]
 1162 0570 1A68     		ldr	r2, [r3]
 1163 0572 FB68     		ldr	r3, [r7, #12]
 1164 0574 DB68     		ldr	r3, [r3, #12]
 1165 0576 B968     		ldr	r1, [r7, #8]
 1166 0578 01FB03F3 		mul	r3, r1, r3
 1167 057c D018     		adds	r0, r2, r3
 1168 057e FB68     		ldr	r3, [r7, #12]
 1169 0580 1A68     		ldr	r2, [r3]
 1170 0582 7B68     		ldr	r3, [r7, #4]
 1171 0584 0133     		adds	r3, r3, #1
ARM GAS  G:\Users\Jaxb\AppData\Local\Temp\ccUb5Hmi.s 			page 28


 1172 0586 F968     		ldr	r1, [r7, #12]
 1173 0588 C968     		ldr	r1, [r1, #12]
 1174 058a 01FB03F3 		mul	r3, r1, r3
 1175 058e D118     		adds	r1, r2, r3
 1176 0590 FB68     		ldr	r3, [r7, #12]
 1177 0592 9A68     		ldr	r2, [r3, #8]
 1178 0594 7B68     		ldr	r3, [r7, #4]
 1179 0596 D31A     		subs	r3, r2, r3
 1180 0598 013B     		subs	r3, r3, #1
 1181 059a FA68     		ldr	r2, [r7, #12]
 1182 059c D268     		ldr	r2, [r2, #12]
 1183 059e 02FB03F3 		mul	r3, r2, r3
 1184 05a2 1A46     		mov	r2, r3
 1185 05a4 FFF7FEFF 		bl	ka_memcpy
 251:../../source/src/kernel/OS_LIB/vector.c **** 		(char*)(vector_ptr->data_ptr) + (to + 1) * vector_ptr->data_size,
 252:../../source/src/kernel/OS_LIB/vector.c **** 		(vector_ptr->cur_len - to - 1)*vector_ptr->data_size);
 253:../../source/src/kernel/OS_LIB/vector.c **** 	vector_ptr->cur_len -= to - from + 1;
 1186              		.loc 1 253 0
 1187 05a8 FB68     		ldr	r3, [r7, #12]
 1188 05aa 9A68     		ldr	r2, [r3, #8]
 1189 05ac B968     		ldr	r1, [r7, #8]
 1190 05ae 7B68     		ldr	r3, [r7, #4]
 1191 05b0 CB1A     		subs	r3, r1, r3
 1192 05b2 1344     		add	r3, r3, r2
 1193 05b4 5A1E     		subs	r2, r3, #1
 1194 05b6 FB68     		ldr	r3, [r7, #12]
 1195 05b8 9A60     		str	r2, [r3, #8]
 254:../../source/src/kernel/OS_LIB/vector.c **** 	//add memory management here
 255:../../source/src/kernel/OS_LIB/vector.c **** 	return FUN_EXECUTE_SUCCESSFULLY;
 1196              		.loc 1 255 0
 1197 05ba 0023     		movs	r3, #0
 1198              	.L78:
 256:../../source/src/kernel/OS_LIB/vector.c **** }
 1199              		.loc 1 256 0
 1200 05bc 1846     		mov	r0, r3
 1201 05be 1037     		adds	r7, r7, #16
 1202              	.LCFI43:
 1203              		.cfi_def_cfa_offset 8
 1204 05c0 BD46     		mov	sp, r7
 1205              	.LCFI44:
 1206              		.cfi_def_cfa_register 13
 1207              		@ sp needed
 1208 05c2 80BD     		pop	{r7, pc}
 1209              	.L84:
 1210              		.align	2
 1211              	.L83:
 1212 05c4 00000000 		.word	.LC0
 1213 05c8 D4030000 		.word	.LC16
 1214 05cc 10040000 		.word	.LC17
 1215 05d0 48040000 		.word	.LC18
 1216              		.cfi_endproc
 1217              	.LFE10:
 1218              		.size	Vector_erase_data, .-Vector_erase_data
 1219              		.section	.rodata
 1220              		.align	2
 1221              	.LC19:
 1222 047c 6572726F 		.ascii	"error fun name : Vector_remove_index_data\012error "
ARM GAS  G:\Users\Jaxb\AppData\Local\Temp\ccUb5Hmi.s 			page 29


 1222      72206675 
 1222      6E206E61 
 1222      6D65203A 
 1222      20566563 
 1223 04ac 70617261 		.ascii	"para : vector_ptr\012\000"
 1223      203A2076 
 1223      6563746F 
 1223      725F7074 
 1223      720A00
 1224 04bf 00       		.align	2
 1225              	.LC20:
 1226 04c0 6572726F 		.ascii	"error fun name : Vector_remove_index_data\012error "
 1226      72206675 
 1226      6E206E61 
 1226      6D65203A 
 1226      20566563 
 1227 04f0 70617261 		.ascii	"para : index\012\000"
 1227      203A2069 
 1227      6E646578 
 1227      0A00
 1228              		.text
 1229              		.align	1
 1230              		.global	Vector_remove_index_data
 1231              		.syntax unified
 1232              		.thumb
 1233              		.thumb_func
 1234              		.fpu softvfp
 1235              		.type	Vector_remove_index_data, %function
 1236              	Vector_remove_index_data:
 1237              	.LFB11:
 257:../../source/src/kernel/OS_LIB/vector.c **** 
 258:../../source/src/kernel/OS_LIB/vector.c **** /*
 259:../../source/src/kernel/OS_LIB/vector.c **** remove the data Vector[index] and store it into *data_store_ptrs
 260:../../source/src/kernel/OS_LIB/vector.c ****  */
 261:../../source/src/kernel/OS_LIB/vector.c **** //if data_store_ptr is NULL,do not store
 262:../../source/src/kernel/OS_LIB/vector.c **** int Vector_remove_index_data(Vector *vector_ptr,unsigned int index,void *data_store_ptr)
 263:../../source/src/kernel/OS_LIB/vector.c **** {
 1238              		.loc 1 263 0
 1239              		.cfi_startproc
 1240              		@ args = 0, pretend = 0, frame = 16
 1241              		@ frame_needed = 1, uses_anonymous_args = 0
 1242 05d4 80B5     		push	{r7, lr}
 1243              	.LCFI45:
 1244              		.cfi_def_cfa_offset 8
 1245              		.cfi_offset 7, -8
 1246              		.cfi_offset 14, -4
 1247 05d6 84B0     		sub	sp, sp, #16
 1248              	.LCFI46:
 1249              		.cfi_def_cfa_offset 24
 1250 05d8 00AF     		add	r7, sp, #0
 1251              	.LCFI47:
 1252              		.cfi_def_cfa_register 7
 1253 05da F860     		str	r0, [r7, #12]
 1254 05dc B960     		str	r1, [r7, #8]
 1255 05de 7A60     		str	r2, [r7, #4]
 264:../../source/src/kernel/OS_LIB/vector.c **** 	ASSERT(NULL != vector_ptr);
 1256              		.loc 1 264 0
ARM GAS  G:\Users\Jaxb\AppData\Local\Temp\ccUb5Hmi.s 			page 30


 1257 05e0 FB68     		ldr	r3, [r7, #12]
 1258 05e2 002B     		cmp	r3, #0
 1259 05e4 04D1     		bne	.L86
 1260              		.loc 1 264 0 is_stmt 0 discriminator 1
 1261 05e6 4FF48471 		mov	r1, #264
 1262 05ea 2C48     		ldr	r0, .L92
 1263 05ec FFF7FEFF 		bl	_ASSERT
 1264              	.L86:
 265:../../source/src/kernel/OS_LIB/vector.c **** 	ASSERT(index < vector_ptr->cur_len);
 1265              		.loc 1 265 0 is_stmt 1
 1266 05f0 FB68     		ldr	r3, [r7, #12]
 1267 05f2 9B68     		ldr	r3, [r3, #8]
 1268 05f4 BA68     		ldr	r2, [r7, #8]
 1269 05f6 9A42     		cmp	r2, r3
 1270 05f8 04D3     		bcc	.L87
 1271              		.loc 1 265 0 is_stmt 0 discriminator 1
 1272 05fa 40F20911 		movw	r1, #265
 1273 05fe 2748     		ldr	r0, .L92
 1274 0600 FFF7FEFF 		bl	_ASSERT
 1275              	.L87:
 266:../../source/src/kernel/OS_LIB/vector.c **** #if CONFIG_PARA_CHECK
 267:../../source/src/kernel/OS_LIB/vector.c **** 	if(NULL == vector_ptr)
 1276              		.loc 1 267 0 is_stmt 1
 1277 0604 FB68     		ldr	r3, [r7, #12]
 1278 0606 002B     		cmp	r3, #0
 1279 0608 05D1     		bne	.L88
 268:../../source/src/kernel/OS_LIB/vector.c **** 	{
 269:../../source/src/kernel/OS_LIB/vector.c **** 		OS_ERROR_PARA_MESSAGE_DISPLAY(Vector_remove_index_data,vector_ptr);
 1280              		.loc 1 269 0
 1281 060a 2548     		ldr	r0, .L92+4
 1282 060c FFF7FEFF 		bl	ka_printf
 270:../../source/src/kernel/OS_LIB/vector.c **** 		return -ERROR_NULL_INPUT_PTR;
 1283              		.loc 1 270 0
 1284 0610 6FF0FE03 		mvn	r3, #254
 1285 0614 3EE0     		b	.L89
 1286              	.L88:
 271:../../source/src/kernel/OS_LIB/vector.c **** 	}
 272:../../source/src/kernel/OS_LIB/vector.c **** 	if(index >= vector_ptr->cur_len)
 1287              		.loc 1 272 0
 1288 0616 FB68     		ldr	r3, [r7, #12]
 1289 0618 9B68     		ldr	r3, [r3, #8]
 1290 061a BA68     		ldr	r2, [r7, #8]
 1291 061c 9A42     		cmp	r2, r3
 1292 061e 05D3     		bcc	.L90
 273:../../source/src/kernel/OS_LIB/vector.c **** 	{
 274:../../source/src/kernel/OS_LIB/vector.c **** 		OS_ERROR_PARA_MESSAGE_DISPLAY(Vector_remove_index_data,index);
 1293              		.loc 1 274 0
 1294 0620 2048     		ldr	r0, .L92+8
 1295 0622 FFF7FEFF 		bl	ka_printf
 275:../../source/src/kernel/OS_LIB/vector.c **** 		return -ERROR_VALUELESS_INPUT;
 1296              		.loc 1 275 0
 1297 0626 6FF0FD03 		mvn	r3, #253
 1298 062a 33E0     		b	.L89
 1299              	.L90:
 276:../../source/src/kernel/OS_LIB/vector.c **** 	}
 277:../../source/src/kernel/OS_LIB/vector.c **** #endif
 278:../../source/src/kernel/OS_LIB/vector.c **** 	if(data_store_ptr)
ARM GAS  G:\Users\Jaxb\AppData\Local\Temp\ccUb5Hmi.s 			page 31


 1300              		.loc 1 278 0
 1301 062c 7B68     		ldr	r3, [r7, #4]
 1302 062e 002B     		cmp	r3, #0
 1303 0630 0DD0     		beq	.L91
 279:../../source/src/kernel/OS_LIB/vector.c **** 	{
 280:../../source/src/kernel/OS_LIB/vector.c **** 		f_memcpy(data_store_ptr,(char*)(vector_ptr->data_ptr) + index * vector_ptr->data_size,vector_ptr-
 1304              		.loc 1 280 0
 1305 0632 FB68     		ldr	r3, [r7, #12]
 1306 0634 1A68     		ldr	r2, [r3]
 1307 0636 FB68     		ldr	r3, [r7, #12]
 1308 0638 DB68     		ldr	r3, [r3, #12]
 1309 063a B968     		ldr	r1, [r7, #8]
 1310 063c 01FB03F3 		mul	r3, r1, r3
 1311 0640 D118     		adds	r1, r2, r3
 1312 0642 FB68     		ldr	r3, [r7, #12]
 1313 0644 DB68     		ldr	r3, [r3, #12]
 1314 0646 1A46     		mov	r2, r3
 1315 0648 7868     		ldr	r0, [r7, #4]
 1316 064a FFF7FEFF 		bl	ka_memcpy
 1317              	.L91:
 281:../../source/src/kernel/OS_LIB/vector.c **** 	}
 282:../../source/src/kernel/OS_LIB/vector.c **** 	f_memcpy((char*)(vector_ptr->data_ptr) + index * vector_ptr->data_size,
 1318              		.loc 1 282 0
 1319 064e FB68     		ldr	r3, [r7, #12]
 1320 0650 1A68     		ldr	r2, [r3]
 1321 0652 FB68     		ldr	r3, [r7, #12]
 1322 0654 DB68     		ldr	r3, [r3, #12]
 1323 0656 B968     		ldr	r1, [r7, #8]
 1324 0658 01FB03F3 		mul	r3, r1, r3
 1325 065c D018     		adds	r0, r2, r3
 1326 065e FB68     		ldr	r3, [r7, #12]
 1327 0660 1A68     		ldr	r2, [r3]
 1328 0662 BB68     		ldr	r3, [r7, #8]
 1329 0664 0133     		adds	r3, r3, #1
 1330 0666 F968     		ldr	r1, [r7, #12]
 1331 0668 C968     		ldr	r1, [r1, #12]
 1332 066a 01FB03F3 		mul	r3, r1, r3
 1333 066e D118     		adds	r1, r2, r3
 1334 0670 FB68     		ldr	r3, [r7, #12]
 1335 0672 9A68     		ldr	r2, [r3, #8]
 1336 0674 BB68     		ldr	r3, [r7, #8]
 1337 0676 D31A     		subs	r3, r2, r3
 1338 0678 013B     		subs	r3, r3, #1
 1339 067a FA68     		ldr	r2, [r7, #12]
 1340 067c D268     		ldr	r2, [r2, #12]
 1341 067e 02FB03F3 		mul	r3, r2, r3
 1342 0682 1A46     		mov	r2, r3
 1343 0684 FFF7FEFF 		bl	ka_memcpy
 283:../../source/src/kernel/OS_LIB/vector.c **** 		(char*)(vector_ptr->data_ptr) + (index + 1) * vector_ptr->data_size,
 284:../../source/src/kernel/OS_LIB/vector.c **** 		(vector_ptr->cur_len - index - 1)*vector_ptr->data_size);
 285:../../source/src/kernel/OS_LIB/vector.c **** 	--vector_ptr->cur_len;
 1344              		.loc 1 285 0
 1345 0688 FB68     		ldr	r3, [r7, #12]
 1346 068a 9B68     		ldr	r3, [r3, #8]
 1347 068c 5A1E     		subs	r2, r3, #1
 1348 068e FB68     		ldr	r3, [r7, #12]
 1349 0690 9A60     		str	r2, [r3, #8]
ARM GAS  G:\Users\Jaxb\AppData\Local\Temp\ccUb5Hmi.s 			page 32


 286:../../source/src/kernel/OS_LIB/vector.c **** 	//add memory management here
 287:../../source/src/kernel/OS_LIB/vector.c **** 	return FUN_EXECUTE_SUCCESSFULLY;
 1350              		.loc 1 287 0
 1351 0692 0023     		movs	r3, #0
 1352              	.L89:
 288:../../source/src/kernel/OS_LIB/vector.c **** }
 1353              		.loc 1 288 0
 1354 0694 1846     		mov	r0, r3
 1355 0696 1037     		adds	r7, r7, #16
 1356              	.LCFI48:
 1357              		.cfi_def_cfa_offset 8
 1358 0698 BD46     		mov	sp, r7
 1359              	.LCFI49:
 1360              		.cfi_def_cfa_register 13
 1361              		@ sp needed
 1362 069a 80BD     		pop	{r7, pc}
 1363              	.L93:
 1364              		.align	2
 1365              	.L92:
 1366 069c 00000000 		.word	.LC0
 1367 06a0 7C040000 		.word	.LC19
 1368 06a4 C0040000 		.word	.LC20
 1369              		.cfi_endproc
 1370              	.LFE11:
 1371              		.size	Vector_remove_index_data, .-Vector_remove_index_data
 1372              		.section	.rodata
 1373 04fe 0000     		.align	2
 1374              	.LC21:
 1375 0500 6572726F 		.ascii	"error fun name : Vector_set_inner\012error para : v"
 1375      72206675 
 1375      6E206E61 
 1375      6D65203A 
 1375      20566563 
 1376 0530 6563746F 		.ascii	"ector_ptr\012\000"
 1376      725F7074 
 1376      720A00
 1377 053b 00       		.align	2
 1378              	.LC22:
 1379 053c 6572726F 		.ascii	"error fun name : Vector_set_inner\012error para : d"
 1379      72206675 
 1379      6E206E61 
 1379      6D65203A 
 1379      20566563 
 1380 056c 6573745F 		.ascii	"est_index\012\000"
 1380      696E6465 
 1380      780A00
 1381 0577 00       		.align	2
 1382              	.LC23:
 1383 0578 6572726F 		.ascii	"error fun name : Vector_set_inner\012error para : s"
 1383      72206675 
 1383      6E206E61 
 1383      6D65203A 
 1383      20566563 
 1384 05a8 72635F69 		.ascii	"rc_index\012\000"
 1384      6E646578 
 1384      0A00
 1385              		.text
ARM GAS  G:\Users\Jaxb\AppData\Local\Temp\ccUb5Hmi.s 			page 33


 1386              		.align	1
 1387              		.global	Vector_set_inner
 1388              		.syntax unified
 1389              		.thumb
 1390              		.thumb_func
 1391              		.fpu softvfp
 1392              		.type	Vector_set_inner, %function
 1393              	Vector_set_inner:
 1394              	.LFB12:
 289:../../source/src/kernel/OS_LIB/vector.c **** 
 290:../../source/src/kernel/OS_LIB/vector.c **** /*
 291:../../source/src/kernel/OS_LIB/vector.c **** 	set Vector[dest_index] = Vector[src_index]
 292:../../source/src/kernel/OS_LIB/vector.c ****  */ 
 293:../../source/src/kernel/OS_LIB/vector.c **** int Vector_set_inner(Vector *vector_ptr,unsigned int dest_index,unsigned int src_index)
 294:../../source/src/kernel/OS_LIB/vector.c **** {
 1395              		.loc 1 294 0
 1396              		.cfi_startproc
 1397              		@ args = 0, pretend = 0, frame = 16
 1398              		@ frame_needed = 1, uses_anonymous_args = 0
 1399 06a8 80B5     		push	{r7, lr}
 1400              	.LCFI50:
 1401              		.cfi_def_cfa_offset 8
 1402              		.cfi_offset 7, -8
 1403              		.cfi_offset 14, -4
 1404 06aa 84B0     		sub	sp, sp, #16
 1405              	.LCFI51:
 1406              		.cfi_def_cfa_offset 24
 1407 06ac 00AF     		add	r7, sp, #0
 1408              	.LCFI52:
 1409              		.cfi_def_cfa_register 7
 1410 06ae F860     		str	r0, [r7, #12]
 1411 06b0 B960     		str	r1, [r7, #8]
 1412 06b2 7A60     		str	r2, [r7, #4]
 295:../../source/src/kernel/OS_LIB/vector.c **** 	ASSERT(NULL != vector_ptr);
 1413              		.loc 1 295 0
 1414 06b4 FB68     		ldr	r3, [r7, #12]
 1415 06b6 002B     		cmp	r3, #0
 1416 06b8 04D1     		bne	.L95
 1417              		.loc 1 295 0 is_stmt 0 discriminator 1
 1418 06ba 40F22711 		movw	r1, #295
 1419 06be 2748     		ldr	r0, .L103
 1420 06c0 FFF7FEFF 		bl	_ASSERT
 1421              	.L95:
 296:../../source/src/kernel/OS_LIB/vector.c **** 	ASSERT((dest_index < vector_ptr->cur_len) && (src_index < vector_ptr->cur_len));
 1422              		.loc 1 296 0 is_stmt 1
 1423 06c4 FB68     		ldr	r3, [r7, #12]
 1424 06c6 9B68     		ldr	r3, [r3, #8]
 1425 06c8 BA68     		ldr	r2, [r7, #8]
 1426 06ca 9A42     		cmp	r2, r3
 1427 06cc 04D2     		bcs	.L96
 1428              		.loc 1 296 0 is_stmt 0 discriminator 1
 1429 06ce FB68     		ldr	r3, [r7, #12]
 1430 06d0 9B68     		ldr	r3, [r3, #8]
 1431 06d2 7A68     		ldr	r2, [r7, #4]
 1432 06d4 9A42     		cmp	r2, r3
 1433 06d6 04D3     		bcc	.L97
 1434              	.L96:
ARM GAS  G:\Users\Jaxb\AppData\Local\Temp\ccUb5Hmi.s 			page 34


 1435              		.loc 1 296 0 discriminator 3
 1436 06d8 4FF49471 		mov	r1, #296
 1437 06dc 1F48     		ldr	r0, .L103
 1438 06de FFF7FEFF 		bl	_ASSERT
 1439              	.L97:
 297:../../source/src/kernel/OS_LIB/vector.c **** #if CONFIG_PARA_CHECK
 298:../../source/src/kernel/OS_LIB/vector.c **** 	if(NULL == vector_ptr)
 1440              		.loc 1 298 0 is_stmt 1
 1441 06e2 FB68     		ldr	r3, [r7, #12]
 1442 06e4 002B     		cmp	r3, #0
 1443 06e6 05D1     		bne	.L98
 299:../../source/src/kernel/OS_LIB/vector.c **** 	{
 300:../../source/src/kernel/OS_LIB/vector.c **** 		OS_ERROR_PARA_MESSAGE_DISPLAY(Vector_set_inner,vector_ptr);
 1444              		.loc 1 300 0
 1445 06e8 1D48     		ldr	r0, .L103+4
 1446 06ea FFF7FEFF 		bl	ka_printf
 301:../../source/src/kernel/OS_LIB/vector.c **** 		return -ERROR_NULL_INPUT_PTR;
 1447              		.loc 1 301 0
 1448 06ee 6FF0FE03 		mvn	r3, #254
 1449 06f2 2EE0     		b	.L99
 1450              	.L98:
 302:../../source/src/kernel/OS_LIB/vector.c **** 	}
 303:../../source/src/kernel/OS_LIB/vector.c **** 	if((dest_index >= vector_ptr->cur_len) || (src_index >= vector_ptr->cur_len))
 1451              		.loc 1 303 0
 1452 06f4 FB68     		ldr	r3, [r7, #12]
 1453 06f6 9B68     		ldr	r3, [r3, #8]
 1454 06f8 BA68     		ldr	r2, [r7, #8]
 1455 06fa 9A42     		cmp	r2, r3
 1456 06fc 04D2     		bcs	.L100
 1457              		.loc 1 303 0 is_stmt 0 discriminator 1
 1458 06fe FB68     		ldr	r3, [r7, #12]
 1459 0700 9B68     		ldr	r3, [r3, #8]
 1460 0702 7A68     		ldr	r2, [r7, #4]
 1461 0704 9A42     		cmp	r2, r3
 1462 0706 08D3     		bcc	.L101
 1463              	.L100:
 304:../../source/src/kernel/OS_LIB/vector.c **** 	{
 305:../../source/src/kernel/OS_LIB/vector.c **** 		OS_ERROR_PARA_MESSAGE_DISPLAY(Vector_set_inner,dest_index);
 1464              		.loc 1 305 0 is_stmt 1
 1465 0708 1648     		ldr	r0, .L103+8
 1466 070a FFF7FEFF 		bl	ka_printf
 306:../../source/src/kernel/OS_LIB/vector.c **** 		OS_ERROR_PARA_MESSAGE_DISPLAY(Vector_set_inner,src_index);
 1467              		.loc 1 306 0
 1468 070e 1648     		ldr	r0, .L103+12
 1469 0710 FFF7FEFF 		bl	ka_printf
 307:../../source/src/kernel/OS_LIB/vector.c **** 		return -ERROR_VALUELESS_INPUT;
 1470              		.loc 1 307 0
 1471 0714 6FF0FD03 		mvn	r3, #253
 1472 0718 1BE0     		b	.L99
 1473              	.L101:
 308:../../source/src/kernel/OS_LIB/vector.c **** 	}
 309:../../source/src/kernel/OS_LIB/vector.c **** #endif
 310:../../source/src/kernel/OS_LIB/vector.c **** 	if(dest_index == src_index)
 1474              		.loc 1 310 0
 1475 071a BA68     		ldr	r2, [r7, #8]
 1476 071c 7B68     		ldr	r3, [r7, #4]
 1477 071e 9A42     		cmp	r2, r3
ARM GAS  G:\Users\Jaxb\AppData\Local\Temp\ccUb5Hmi.s 			page 35


 1478 0720 01D1     		bne	.L102
 311:../../source/src/kernel/OS_LIB/vector.c **** 	{
 312:../../source/src/kernel/OS_LIB/vector.c **** 		return FUN_EXECUTE_SUCCESSFULLY;
 1479              		.loc 1 312 0
 1480 0722 0023     		movs	r3, #0
 1481 0724 15E0     		b	.L99
 1482              	.L102:
 313:../../source/src/kernel/OS_LIB/vector.c **** 	}
 314:../../source/src/kernel/OS_LIB/vector.c **** 	f_memcpy((char*)(vector_ptr->data_ptr) + dest_index * vector_ptr->data_size,
 1483              		.loc 1 314 0
 1484 0726 FB68     		ldr	r3, [r7, #12]
 1485 0728 1A68     		ldr	r2, [r3]
 1486 072a FB68     		ldr	r3, [r7, #12]
 1487 072c DB68     		ldr	r3, [r3, #12]
 1488 072e B968     		ldr	r1, [r7, #8]
 1489 0730 01FB03F3 		mul	r3, r1, r3
 1490 0734 D018     		adds	r0, r2, r3
 1491 0736 FB68     		ldr	r3, [r7, #12]
 1492 0738 1A68     		ldr	r2, [r3]
 1493 073a FB68     		ldr	r3, [r7, #12]
 1494 073c DB68     		ldr	r3, [r3, #12]
 1495 073e 7968     		ldr	r1, [r7, #4]
 1496 0740 01FB03F3 		mul	r3, r1, r3
 1497 0744 D118     		adds	r1, r2, r3
 1498 0746 FB68     		ldr	r3, [r7, #12]
 1499 0748 DB68     		ldr	r3, [r3, #12]
 1500 074a 1A46     		mov	r2, r3
 1501 074c FFF7FEFF 		bl	ka_memcpy
 315:../../source/src/kernel/OS_LIB/vector.c **** 		(char*)(vector_ptr->data_ptr) + src_index * vector_ptr->data_size,
 316:../../source/src/kernel/OS_LIB/vector.c **** 		vector_ptr->data_size);
 317:../../source/src/kernel/OS_LIB/vector.c **** 	return FUN_EXECUTE_SUCCESSFULLY;
 1502              		.loc 1 317 0
 1503 0750 0023     		movs	r3, #0
 1504              	.L99:
 318:../../source/src/kernel/OS_LIB/vector.c **** }
 1505              		.loc 1 318 0
 1506 0752 1846     		mov	r0, r3
 1507 0754 1037     		adds	r7, r7, #16
 1508              	.LCFI53:
 1509              		.cfi_def_cfa_offset 8
 1510 0756 BD46     		mov	sp, r7
 1511              	.LCFI54:
 1512              		.cfi_def_cfa_register 13
 1513              		@ sp needed
 1514 0758 80BD     		pop	{r7, pc}
 1515              	.L104:
 1516 075a 00BF     		.align	2
 1517              	.L103:
 1518 075c 00000000 		.word	.LC0
 1519 0760 00050000 		.word	.LC21
 1520 0764 3C050000 		.word	.LC22
 1521 0768 78050000 		.word	.LC23
 1522              		.cfi_endproc
 1523              	.LFE12:
 1524              		.size	Vector_set_inner, .-Vector_set_inner
 1525              		.section	.rodata
 1526 05b2 0000     		.align	2
ARM GAS  G:\Users\Jaxb\AppData\Local\Temp\ccUb5Hmi.s 			page 36


 1527              	.LC24:
 1528 05b4 6572726F 		.ascii	"error fun name : Vector_swap_inner\012error para : "
 1528      72206675 
 1528      6E206E61 
 1528      6D65203A 
 1528      20566563 
 1529 05e4 76656374 		.ascii	"vector_ptr\012\000"
 1529      6F725F70 
 1529      74720A00 
 1530              		.align	2
 1531              	.LC25:
 1532 05f0 6572726F 		.ascii	"error fun name : Vector_swap_inner\012error para : "
 1532      72206675 
 1532      6E206E61 
 1532      6D65203A 
 1532      20566563 
 1533 0620 696E6465 		.ascii	"index1\012\000"
 1533      78310A00 
 1534              		.align	2
 1535              	.LC26:
 1536 0628 6572726F 		.ascii	"error fun name : Vector_swap_inner\012error para : "
 1536      72206675 
 1536      6E206E61 
 1536      6D65203A 
 1536      20566563 
 1537 0658 696E6465 		.ascii	"index2\012\000"
 1537      78320A00 
 1538              		.text
 1539              		.align	1
 1540              		.global	Vector_swap_inner
 1541              		.syntax unified
 1542              		.thumb
 1543              		.thumb_func
 1544              		.fpu softvfp
 1545              		.type	Vector_swap_inner, %function
 1546              	Vector_swap_inner:
 1547              	.LFB13:
 319:../../source/src/kernel/OS_LIB/vector.c **** 
 320:../../source/src/kernel/OS_LIB/vector.c **** /*
 321:../../source/src/kernel/OS_LIB/vector.c **** swap the data between index "index1" and "index2"
 322:../../source/src/kernel/OS_LIB/vector.c ****  */
 323:../../source/src/kernel/OS_LIB/vector.c **** int Vector_swap_inner(Vector *vector_ptr,unsigned int index1,unsigned int index2)
 324:../../source/src/kernel/OS_LIB/vector.c **** {
 1548              		.loc 1 324 0
 1549              		.cfi_startproc
 1550              		@ args = 0, pretend = 0, frame = 24
 1551              		@ frame_needed = 1, uses_anonymous_args = 0
 1552 076c 80B5     		push	{r7, lr}
 1553              	.LCFI55:
 1554              		.cfi_def_cfa_offset 8
 1555              		.cfi_offset 7, -8
 1556              		.cfi_offset 14, -4
 1557 076e 86B0     		sub	sp, sp, #24
 1558              	.LCFI56:
 1559              		.cfi_def_cfa_offset 32
 1560 0770 00AF     		add	r7, sp, #0
 1561              	.LCFI57:
ARM GAS  G:\Users\Jaxb\AppData\Local\Temp\ccUb5Hmi.s 			page 37


 1562              		.cfi_def_cfa_register 7
 1563 0772 F860     		str	r0, [r7, #12]
 1564 0774 B960     		str	r1, [r7, #8]
 1565 0776 7A60     		str	r2, [r7, #4]
 325:../../source/src/kernel/OS_LIB/vector.c **** 	ASSERT(NULL != vector_ptr);
 1566              		.loc 1 325 0
 1567 0778 FB68     		ldr	r3, [r7, #12]
 1568 077a 002B     		cmp	r3, #0
 1569 077c 04D1     		bne	.L106
 1570              		.loc 1 325 0 is_stmt 0 discriminator 1
 1571 077e 40F24511 		movw	r1, #325
 1572 0782 3C48     		ldr	r0, .L115
 1573 0784 FFF7FEFF 		bl	_ASSERT
 1574              	.L106:
 326:../../source/src/kernel/OS_LIB/vector.c **** 	ASSERT((index1 < vector_ptr->cur_len) && (index2 < vector_ptr->cur_len));
 1575              		.loc 1 326 0 is_stmt 1
 1576 0788 FB68     		ldr	r3, [r7, #12]
 1577 078a 9B68     		ldr	r3, [r3, #8]
 1578 078c BA68     		ldr	r2, [r7, #8]
 1579 078e 9A42     		cmp	r2, r3
 1580 0790 04D2     		bcs	.L107
 1581              		.loc 1 326 0 is_stmt 0 discriminator 1
 1582 0792 FB68     		ldr	r3, [r7, #12]
 1583 0794 9B68     		ldr	r3, [r3, #8]
 1584 0796 7A68     		ldr	r2, [r7, #4]
 1585 0798 9A42     		cmp	r2, r3
 1586 079a 04D3     		bcc	.L108
 1587              	.L107:
 1588              		.loc 1 326 0 discriminator 3
 1589 079c 4FF4A371 		mov	r1, #326
 1590 07a0 3448     		ldr	r0, .L115
 1591 07a2 FFF7FEFF 		bl	_ASSERT
 1592              	.L108:
 327:../../source/src/kernel/OS_LIB/vector.c **** #if CONFIG_PARA_CHECK
 328:../../source/src/kernel/OS_LIB/vector.c **** 	if(NULL == vector_ptr)
 1593              		.loc 1 328 0 is_stmt 1
 1594 07a6 FB68     		ldr	r3, [r7, #12]
 1595 07a8 002B     		cmp	r3, #0
 1596 07aa 05D1     		bne	.L109
 329:../../source/src/kernel/OS_LIB/vector.c **** 	{
 330:../../source/src/kernel/OS_LIB/vector.c **** 		OS_ERROR_PARA_MESSAGE_DISPLAY(Vector_swap_inner,vector_ptr);
 1597              		.loc 1 330 0
 1598 07ac 3248     		ldr	r0, .L115+4
 1599 07ae FFF7FEFF 		bl	ka_printf
 331:../../source/src/kernel/OS_LIB/vector.c **** 		return -ERROR_NULL_INPUT_PTR;
 1600              		.loc 1 331 0
 1601 07b2 6FF0FE03 		mvn	r3, #254
 1602 07b6 59E0     		b	.L110
 1603              	.L109:
 332:../../source/src/kernel/OS_LIB/vector.c **** 	}
 333:../../source/src/kernel/OS_LIB/vector.c **** 	if((index1 >= vector_ptr->cur_len) || (index2 >= vector_ptr->cur_len))
 1604              		.loc 1 333 0
 1605 07b8 FB68     		ldr	r3, [r7, #12]
 1606 07ba 9B68     		ldr	r3, [r3, #8]
 1607 07bc BA68     		ldr	r2, [r7, #8]
 1608 07be 9A42     		cmp	r2, r3
 1609 07c0 04D2     		bcs	.L111
ARM GAS  G:\Users\Jaxb\AppData\Local\Temp\ccUb5Hmi.s 			page 38


 1610              		.loc 1 333 0 is_stmt 0 discriminator 1
 1611 07c2 FB68     		ldr	r3, [r7, #12]
 1612 07c4 9B68     		ldr	r3, [r3, #8]
 1613 07c6 7A68     		ldr	r2, [r7, #4]
 1614 07c8 9A42     		cmp	r2, r3
 1615 07ca 08D3     		bcc	.L112
 1616              	.L111:
 334:../../source/src/kernel/OS_LIB/vector.c **** 	{
 335:../../source/src/kernel/OS_LIB/vector.c **** 		OS_ERROR_PARA_MESSAGE_DISPLAY(Vector_swap_inner,index1);
 1617              		.loc 1 335 0 is_stmt 1
 1618 07cc 2B48     		ldr	r0, .L115+8
 1619 07ce FFF7FEFF 		bl	ka_printf
 336:../../source/src/kernel/OS_LIB/vector.c **** 		OS_ERROR_PARA_MESSAGE_DISPLAY(Vector_swap_inner,index2);
 1620              		.loc 1 336 0
 1621 07d2 2B48     		ldr	r0, .L115+12
 1622 07d4 FFF7FEFF 		bl	ka_printf
 337:../../source/src/kernel/OS_LIB/vector.c **** 		return -ERROR_VALUELESS_INPUT;
 1623              		.loc 1 337 0
 1624 07d8 6FF0FD03 		mvn	r3, #253
 1625 07dc 46E0     		b	.L110
 1626              	.L112:
 338:../../source/src/kernel/OS_LIB/vector.c **** 	}
 339:../../source/src/kernel/OS_LIB/vector.c **** #endif
 340:../../source/src/kernel/OS_LIB/vector.c **** 	if(index1 == index2)
 1627              		.loc 1 340 0
 1628 07de BA68     		ldr	r2, [r7, #8]
 1629 07e0 7B68     		ldr	r3, [r7, #4]
 1630 07e2 9A42     		cmp	r2, r3
 1631 07e4 01D1     		bne	.L113
 341:../../source/src/kernel/OS_LIB/vector.c **** 	{
 342:../../source/src/kernel/OS_LIB/vector.c **** 		return FUN_EXECUTE_SUCCESSFULLY;
 1632              		.loc 1 342 0
 1633 07e6 0023     		movs	r3, #0
 1634 07e8 40E0     		b	.L110
 1635              	.L113:
 343:../../source/src/kernel/OS_LIB/vector.c **** 	}
 344:../../source/src/kernel/OS_LIB/vector.c **** 	void *buffer = f_malloc(vector_ptr->data_size);
 1636              		.loc 1 344 0
 1637 07ea FB68     		ldr	r3, [r7, #12]
 1638 07ec DB68     		ldr	r3, [r3, #12]
 1639 07ee 1846     		mov	r0, r3
 1640 07f0 FFF7FEFF 		bl	ka_malloc
 1641 07f4 7861     		str	r0, [r7, #20]
 345:../../source/src/kernel/OS_LIB/vector.c **** 	if(NULL == buffer)
 1642              		.loc 1 345 0
 1643 07f6 7B69     		ldr	r3, [r7, #20]
 1644 07f8 002B     		cmp	r3, #0
 1645 07fa 02D1     		bne	.L114
 346:../../source/src/kernel/OS_LIB/vector.c **** 		return -ERROR_ALLOCATE_ROOM;
 1646              		.loc 1 346 0
 1647 07fc 4FF0FF33 		mov	r3, #-1
 1648 0800 34E0     		b	.L110
 1649              	.L114:
 347:../../source/src/kernel/OS_LIB/vector.c **** 	f_memcpy(buffer,
 1650              		.loc 1 347 0
 1651 0802 FB68     		ldr	r3, [r7, #12]
 1652 0804 1A68     		ldr	r2, [r3]
ARM GAS  G:\Users\Jaxb\AppData\Local\Temp\ccUb5Hmi.s 			page 39


 1653 0806 FB68     		ldr	r3, [r7, #12]
 1654 0808 DB68     		ldr	r3, [r3, #12]
 1655 080a B968     		ldr	r1, [r7, #8]
 1656 080c 01FB03F3 		mul	r3, r1, r3
 1657 0810 D118     		adds	r1, r2, r3
 1658 0812 FB68     		ldr	r3, [r7, #12]
 1659 0814 DB68     		ldr	r3, [r3, #12]
 1660 0816 1A46     		mov	r2, r3
 1661 0818 7869     		ldr	r0, [r7, #20]
 1662 081a FFF7FEFF 		bl	ka_memcpy
 348:../../source/src/kernel/OS_LIB/vector.c **** 		(char*)(vector_ptr->data_ptr) + index1 * vector_ptr->data_size,
 349:../../source/src/kernel/OS_LIB/vector.c **** 		vector_ptr->data_size);
 350:../../source/src/kernel/OS_LIB/vector.c **** 	f_memcpy((char*)(vector_ptr->data_ptr) + index1 * vector_ptr->data_size,
 1663              		.loc 1 350 0
 1664 081e FB68     		ldr	r3, [r7, #12]
 1665 0820 1A68     		ldr	r2, [r3]
 1666 0822 FB68     		ldr	r3, [r7, #12]
 1667 0824 DB68     		ldr	r3, [r3, #12]
 1668 0826 B968     		ldr	r1, [r7, #8]
 1669 0828 01FB03F3 		mul	r3, r1, r3
 1670 082c D018     		adds	r0, r2, r3
 1671 082e FB68     		ldr	r3, [r7, #12]
 1672 0830 1A68     		ldr	r2, [r3]
 1673 0832 FB68     		ldr	r3, [r7, #12]
 1674 0834 DB68     		ldr	r3, [r3, #12]
 1675 0836 7968     		ldr	r1, [r7, #4]
 1676 0838 01FB03F3 		mul	r3, r1, r3
 1677 083c D118     		adds	r1, r2, r3
 1678 083e FB68     		ldr	r3, [r7, #12]
 1679 0840 DB68     		ldr	r3, [r3, #12]
 1680 0842 1A46     		mov	r2, r3
 1681 0844 FFF7FEFF 		bl	ka_memcpy
 351:../../source/src/kernel/OS_LIB/vector.c **** 		(char*)(vector_ptr->data_ptr) + index2 * vector_ptr->data_size,
 352:../../source/src/kernel/OS_LIB/vector.c **** 		vector_ptr->data_size);
 353:../../source/src/kernel/OS_LIB/vector.c **** 	f_memcpy((char*)(vector_ptr->data_ptr) + index2 * vector_ptr->data_size,
 1682              		.loc 1 353 0
 1683 0848 FB68     		ldr	r3, [r7, #12]
 1684 084a 1A68     		ldr	r2, [r3]
 1685 084c FB68     		ldr	r3, [r7, #12]
 1686 084e DB68     		ldr	r3, [r3, #12]
 1687 0850 7968     		ldr	r1, [r7, #4]
 1688 0852 01FB03F3 		mul	r3, r1, r3
 1689 0856 D018     		adds	r0, r2, r3
 1690 0858 FB68     		ldr	r3, [r7, #12]
 1691 085a DB68     		ldr	r3, [r3, #12]
 1692 085c 1A46     		mov	r2, r3
 1693 085e 7969     		ldr	r1, [r7, #20]
 1694 0860 FFF7FEFF 		bl	ka_memcpy
 354:../../source/src/kernel/OS_LIB/vector.c **** 		buffer,
 355:../../source/src/kernel/OS_LIB/vector.c **** 		vector_ptr->data_size);
 356:../../source/src/kernel/OS_LIB/vector.c **** 	f_free(buffer);
 1695              		.loc 1 356 0
 1696 0864 7869     		ldr	r0, [r7, #20]
 1697 0866 FFF7FEFF 		bl	ka_free
 357:../../source/src/kernel/OS_LIB/vector.c **** 	return FUN_EXECUTE_SUCCESSFULLY;
 1698              		.loc 1 357 0
 1699 086a 0023     		movs	r3, #0
ARM GAS  G:\Users\Jaxb\AppData\Local\Temp\ccUb5Hmi.s 			page 40


 1700              	.L110:
 358:../../source/src/kernel/OS_LIB/vector.c **** }
 1701              		.loc 1 358 0
 1702 086c 1846     		mov	r0, r3
 1703 086e 1837     		adds	r7, r7, #24
 1704              	.LCFI58:
 1705              		.cfi_def_cfa_offset 8
 1706 0870 BD46     		mov	sp, r7
 1707              	.LCFI59:
 1708              		.cfi_def_cfa_register 13
 1709              		@ sp needed
 1710 0872 80BD     		pop	{r7, pc}
 1711              	.L116:
 1712              		.align	2
 1713              	.L115:
 1714 0874 00000000 		.word	.LC0
 1715 0878 B4050000 		.word	.LC24
 1716 087c F0050000 		.word	.LC25
 1717 0880 28060000 		.word	.LC26
 1718              		.cfi_endproc
 1719              	.LFE13:
 1720              		.size	Vector_swap_inner, .-Vector_swap_inner
 1721              	.Letext0:
 1722              		.file 2 "../../source/include/os_lib/vector.h"
 1723              		.section	.debug_info,"",%progbits
 1724              	.Ldebug_info0:
 1725 0000 0F040000 		.4byte	0x40f
 1726 0004 0200     		.2byte	0x2
 1727 0006 00000000 		.4byte	.Ldebug_abbrev0
 1728 000a 04       		.byte	0x4
 1729 000b 01       		.uleb128 0x1
 1730 000c 0A020000 		.4byte	.LASF37
 1731 0010 0C       		.byte	0xc
 1732 0011 62000000 		.4byte	.LASF38
 1733 0015 E7020000 		.4byte	.LASF39
 1734 0019 00000000 		.4byte	.Ltext0
 1735 001d 84080000 		.4byte	.Letext0
 1736 0021 00000000 		.4byte	.Ldebug_line0
 1737 0025 02       		.uleb128 0x2
 1738 0026 9C010000 		.4byte	.LASF40
 1739 002a 14       		.byte	0x14
 1740 002b 02       		.byte	0x2
 1741 002c 08       		.byte	0x8
 1742 002d 78000000 		.4byte	0x78
 1743 0031 03       		.uleb128 0x3
 1744 0032 2D010000 		.4byte	.LASF0
 1745 0036 02       		.byte	0x2
 1746 0037 0A       		.byte	0xa
 1747 0038 78000000 		.4byte	0x78
 1748 003c 02       		.byte	0x2
 1749 003d 23       		.byte	0x23
 1750 003e 00       		.uleb128 0
 1751 003f 03       		.uleb128 0x3
 1752 0040 18010000 		.4byte	.LASF1
 1753 0044 02       		.byte	0x2
 1754 0045 0B       		.byte	0xb
 1755 0046 7A000000 		.4byte	0x7a
ARM GAS  G:\Users\Jaxb\AppData\Local\Temp\ccUb5Hmi.s 			page 41


 1756 004a 02       		.byte	0x2
 1757 004b 23       		.byte	0x23
 1758 004c 04       		.uleb128 0x4
 1759 004d 03       		.uleb128 0x3
 1760 004e 10010000 		.4byte	.LASF2
 1761 0052 02       		.byte	0x2
 1762 0053 0C       		.byte	0xc
 1763 0054 7A000000 		.4byte	0x7a
 1764 0058 02       		.byte	0x2
 1765 0059 23       		.byte	0x23
 1766 005a 08       		.uleb128 0x8
 1767 005b 03       		.uleb128 0x3
 1768 005c 2E000000 		.4byte	.LASF3
 1769 0060 02       		.byte	0x2
 1770 0061 0D       		.byte	0xd
 1771 0062 7A000000 		.4byte	0x7a
 1772 0066 02       		.byte	0x2
 1773 0067 23       		.byte	0x23
 1774 0068 0C       		.uleb128 0xc
 1775 0069 03       		.uleb128 0x3
 1776 006a CA010000 		.4byte	.LASF4
 1777 006e 02       		.byte	0x2
 1778 006f 13       		.byte	0x13
 1779 0070 7A000000 		.4byte	0x7a
 1780 0074 02       		.byte	0x2
 1781 0075 23       		.byte	0x23
 1782 0076 10       		.uleb128 0x10
 1783 0077 00       		.byte	0
 1784 0078 04       		.uleb128 0x4
 1785 0079 04       		.byte	0x4
 1786 007a 05       		.uleb128 0x5
 1787 007b 04       		.byte	0x4
 1788 007c 07       		.byte	0x7
 1789 007d 38000000 		.4byte	.LASF5
 1790 0081 06       		.uleb128 0x6
 1791 0082 4D010000 		.4byte	.LASF41
 1792 0086 02       		.byte	0x2
 1793 0087 14       		.byte	0x14
 1794 0088 25000000 		.4byte	0x25
 1795 008c 05       		.uleb128 0x5
 1796 008d 01       		.byte	0x1
 1797 008e 06       		.byte	0x6
 1798 008f BD020000 		.4byte	.LASF6
 1799 0093 05       		.uleb128 0x5
 1800 0094 02       		.byte	0x2
 1801 0095 05       		.byte	0x5
 1802 0096 DB010000 		.4byte	.LASF7
 1803 009a 07       		.uleb128 0x7
 1804 009b 04       		.byte	0x4
 1805 009c 05       		.byte	0x5
 1806 009d 696E7400 		.ascii	"int\000"
 1807 00a1 05       		.uleb128 0x5
 1808 00a2 08       		.byte	0x8
 1809 00a3 05       		.byte	0x5
 1810 00a4 75010000 		.4byte	.LASF8
 1811 00a8 05       		.uleb128 0x5
 1812 00a9 01       		.byte	0x1
ARM GAS  G:\Users\Jaxb\AppData\Local\Temp\ccUb5Hmi.s 			page 42


 1813 00aa 08       		.byte	0x8
 1814 00ab BE000000 		.4byte	.LASF9
 1815 00af 05       		.uleb128 0x5
 1816 00b0 02       		.byte	0x2
 1817 00b1 07       		.byte	0x7
 1818 00b2 E5000000 		.4byte	.LASF10
 1819 00b6 05       		.uleb128 0x5
 1820 00b7 08       		.byte	0x8
 1821 00b8 07       		.byte	0x7
 1822 00b9 36010000 		.4byte	.LASF11
 1823 00bd 08       		.uleb128 0x8
 1824 00be 01       		.byte	0x1
 1825 00bf F8010000 		.4byte	.LASF15
 1826 00c3 01       		.byte	0x1
 1827 00c4 4301     		.2byte	0x143
 1828 00c6 01       		.byte	0x1
 1829 00c7 9A000000 		.4byte	0x9a
 1830 00cb 6C070000 		.4byte	.LFB13
 1831 00cf 84080000 		.4byte	.LFE13
 1832 00d3 00000000 		.4byte	.LLST11
 1833 00d7 01       		.byte	0x1
 1834 00d8 19010000 		.4byte	0x119
 1835 00dc 09       		.uleb128 0x9
 1836 00dd 54010000 		.4byte	.LASF12
 1837 00e1 01       		.byte	0x1
 1838 00e2 4301     		.2byte	0x143
 1839 00e4 19010000 		.4byte	0x119
 1840 00e8 02       		.byte	0x2
 1841 00e9 91       		.byte	0x91
 1842 00ea 6C       		.sleb128 -20
 1843 00eb 09       		.uleb128 0x9
 1844 00ec 15000000 		.4byte	.LASF13
 1845 00f0 01       		.byte	0x1
 1846 00f1 4301     		.2byte	0x143
 1847 00f3 7A000000 		.4byte	0x7a
 1848 00f7 02       		.byte	0x2
 1849 00f8 91       		.byte	0x91
 1850 00f9 68       		.sleb128 -24
 1851 00fa 09       		.uleb128 0x9
 1852 00fb 1C000000 		.4byte	.LASF14
 1853 00ff 01       		.byte	0x1
 1854 0100 4301     		.2byte	0x143
 1855 0102 7A000000 		.4byte	0x7a
 1856 0106 02       		.byte	0x2
 1857 0107 91       		.byte	0x91
 1858 0108 64       		.sleb128 -28
 1859 0109 0A       		.uleb128 0xa
 1860 010a F1010000 		.4byte	.LASF33
 1861 010e 01       		.byte	0x1
 1862 010f 5801     		.2byte	0x158
 1863 0111 78000000 		.4byte	0x78
 1864 0115 02       		.byte	0x2
 1865 0116 91       		.byte	0x91
 1866 0117 74       		.sleb128 -12
 1867 0118 00       		.byte	0
 1868 0119 0B       		.uleb128 0xb
 1869 011a 04       		.byte	0x4
ARM GAS  G:\Users\Jaxb\AppData\Local\Temp\ccUb5Hmi.s 			page 43


 1870 011b 81000000 		.4byte	0x81
 1871 011f 08       		.uleb128 0x8
 1872 0120 01       		.byte	0x1
 1873 0121 8A000000 		.4byte	.LASF16
 1874 0125 01       		.byte	0x1
 1875 0126 2501     		.2byte	0x125
 1876 0128 01       		.byte	0x1
 1877 0129 9A000000 		.4byte	0x9a
 1878 012d A8060000 		.4byte	.LFB12
 1879 0131 6C070000 		.4byte	.LFE12
 1880 0135 50000000 		.4byte	.LLST10
 1881 0139 01       		.byte	0x1
 1882 013a 6C010000 		.4byte	0x16c
 1883 013e 09       		.uleb128 0x9
 1884 013f 54010000 		.4byte	.LASF12
 1885 0143 01       		.byte	0x1
 1886 0144 2501     		.2byte	0x125
 1887 0146 19010000 		.4byte	0x119
 1888 014a 02       		.byte	0x2
 1889 014b 91       		.byte	0x91
 1890 014c 74       		.sleb128 -12
 1891 014d 09       		.uleb128 0x9
 1892 014e 23000000 		.4byte	.LASF17
 1893 0152 01       		.byte	0x1
 1894 0153 2501     		.2byte	0x125
 1895 0155 7A000000 		.4byte	0x7a
 1896 0159 02       		.byte	0x2
 1897 015a 91       		.byte	0x91
 1898 015b 70       		.sleb128 -16
 1899 015c 09       		.uleb128 0x9
 1900 015d 06010000 		.4byte	.LASF18
 1901 0161 01       		.byte	0x1
 1902 0162 2501     		.2byte	0x125
 1903 0164 7A000000 		.4byte	0x7a
 1904 0168 02       		.byte	0x2
 1905 0169 91       		.byte	0x91
 1906 016a 6C       		.sleb128 -20
 1907 016b 00       		.byte	0
 1908 016c 08       		.uleb128 0x8
 1909 016d 01       		.byte	0x1
 1910 016e 83010000 		.4byte	.LASF19
 1911 0172 01       		.byte	0x1
 1912 0173 0601     		.2byte	0x106
 1913 0175 01       		.byte	0x1
 1914 0176 9A000000 		.4byte	0x9a
 1915 017a D4050000 		.4byte	.LFB11
 1916 017e A8060000 		.4byte	.LFE11
 1917 0182 A0000000 		.4byte	.LLST9
 1918 0186 01       		.byte	0x1
 1919 0187 B9010000 		.4byte	0x1b9
 1920 018b 09       		.uleb128 0x9
 1921 018c 54010000 		.4byte	.LASF12
 1922 0190 01       		.byte	0x1
 1923 0191 0601     		.2byte	0x106
 1924 0193 19010000 		.4byte	0x119
 1925 0197 02       		.byte	0x2
 1926 0198 91       		.byte	0x91
ARM GAS  G:\Users\Jaxb\AppData\Local\Temp\ccUb5Hmi.s 			page 44


 1927 0199 74       		.sleb128 -12
 1928 019a 09       		.uleb128 0x9
 1929 019b B5010000 		.4byte	.LASF20
 1930 019f 01       		.byte	0x1
 1931 01a0 0601     		.2byte	0x106
 1932 01a2 7A000000 		.4byte	0x7a
 1933 01a6 02       		.byte	0x2
 1934 01a7 91       		.byte	0x91
 1935 01a8 70       		.sleb128 -16
 1936 01a9 09       		.uleb128 0x9
 1937 01aa BB010000 		.4byte	.LASF21
 1938 01ae 01       		.byte	0x1
 1939 01af 0601     		.2byte	0x106
 1940 01b1 78000000 		.4byte	0x78
 1941 01b5 02       		.byte	0x2
 1942 01b6 91       		.byte	0x91
 1943 01b7 6C       		.sleb128 -20
 1944 01b8 00       		.byte	0
 1945 01b9 0C       		.uleb128 0xc
 1946 01ba 01       		.byte	0x1
 1947 01bb A3010000 		.4byte	.LASF22
 1948 01bf 01       		.byte	0x1
 1949 01c0 DE       		.byte	0xde
 1950 01c1 01       		.byte	0x1
 1951 01c2 9A000000 		.4byte	0x9a
 1952 01c6 F0040000 		.4byte	.LFB10
 1953 01ca D4050000 		.4byte	.LFE10
 1954 01ce F0000000 		.4byte	.LLST8
 1955 01d2 01       		.byte	0x1
 1956 01d3 01020000 		.4byte	0x201
 1957 01d7 0D       		.uleb128 0xd
 1958 01d8 54010000 		.4byte	.LASF12
 1959 01dc 01       		.byte	0x1
 1960 01dd DE       		.byte	0xde
 1961 01de 19010000 		.4byte	0x119
 1962 01e2 02       		.byte	0x2
 1963 01e3 91       		.byte	0x91
 1964 01e4 74       		.sleb128 -12
 1965 01e5 0D       		.uleb128 0xd
 1966 01e6 10000000 		.4byte	.LASF23
 1967 01ea 01       		.byte	0x1
 1968 01eb DE       		.byte	0xde
 1969 01ec 7A000000 		.4byte	0x7a
 1970 01f0 02       		.byte	0x2
 1971 01f1 91       		.byte	0x91
 1972 01f2 70       		.sleb128 -16
 1973 01f3 0E       		.uleb128 0xe
 1974 01f4 746F00   		.ascii	"to\000"
 1975 01f7 01       		.byte	0x1
 1976 01f8 DE       		.byte	0xde
 1977 01f9 7A000000 		.4byte	0x7a
 1978 01fd 02       		.byte	0x2
 1979 01fe 91       		.byte	0x91
 1980 01ff 6C       		.sleb128 -20
 1981 0200 00       		.byte	0
 1982 0201 0C       		.uleb128 0xc
 1983 0202 01       		.byte	0x1
ARM GAS  G:\Users\Jaxb\AppData\Local\Temp\ccUb5Hmi.s 			page 45


 1984 0203 D9020000 		.4byte	.LASF24
 1985 0207 01       		.byte	0x1
 1986 0208 CD       		.byte	0xcd
 1987 0209 01       		.byte	0x1
 1988 020a 9A000000 		.4byte	0x9a
 1989 020e AC040000 		.4byte	.LFB9
 1990 0212 F0040000 		.4byte	.LFE9
 1991 0216 40010000 		.4byte	.LLST7
 1992 021a 01       		.byte	0x1
 1993 021b 2E020000 		.4byte	0x22e
 1994 021f 0D       		.uleb128 0xd
 1995 0220 54010000 		.4byte	.LASF12
 1996 0224 01       		.byte	0x1
 1997 0225 CD       		.byte	0xcd
 1998 0226 19010000 		.4byte	0x119
 1999 022a 02       		.byte	0x2
 2000 022b 91       		.byte	0x91
 2001 022c 74       		.sleb128 -12
 2002 022d 00       		.byte	0
 2003 022e 0C       		.uleb128 0xc
 2004 022f 01       		.byte	0x1
 2005 0230 CC000000 		.4byte	.LASF25
 2006 0234 01       		.byte	0x1
 2007 0235 B5       		.byte	0xb5
 2008 0236 01       		.byte	0x1
 2009 0237 9A000000 		.4byte	0x9a
 2010 023b 20040000 		.4byte	.LFB8
 2011 023f AC040000 		.4byte	.LFE8
 2012 0243 90010000 		.4byte	.LLST6
 2013 0247 01       		.byte	0x1
 2014 0248 77020000 		.4byte	0x277
 2015 024c 0D       		.uleb128 0xd
 2016 024d 54010000 		.4byte	.LASF12
 2017 0251 01       		.byte	0x1
 2018 0252 B5       		.byte	0xb5
 2019 0253 19010000 		.4byte	0x119
 2020 0257 02       		.byte	0x2
 2021 0258 91       		.byte	0x91
 2022 0259 74       		.sleb128 -12
 2023 025a 0D       		.uleb128 0xd
 2024 025b B5010000 		.4byte	.LASF20
 2025 025f 01       		.byte	0x1
 2026 0260 B5       		.byte	0xb5
 2027 0261 7A000000 		.4byte	0x7a
 2028 0265 02       		.byte	0x2
 2029 0266 91       		.byte	0x91
 2030 0267 70       		.sleb128 -16
 2031 0268 0D       		.uleb128 0xd
 2032 0269 20010000 		.4byte	.LASF26
 2033 026d 01       		.byte	0x1
 2034 026e B5       		.byte	0xb5
 2035 026f 77020000 		.4byte	0x277
 2036 0273 02       		.byte	0x2
 2037 0274 91       		.byte	0x91
 2038 0275 6C       		.sleb128 -20
 2039 0276 00       		.byte	0
 2040 0277 0B       		.uleb128 0xb
ARM GAS  G:\Users\Jaxb\AppData\Local\Temp\ccUb5Hmi.s 			page 46


 2041 0278 04       		.byte	0x4
 2042 0279 78000000 		.4byte	0x78
 2043 027d 0C       		.uleb128 0xc
 2044 027e 01       		.byte	0x1
 2045 027f 5F010000 		.4byte	.LASF27
 2046 0283 01       		.byte	0x1
 2047 0284 A0       		.byte	0xa0
 2048 0285 01       		.byte	0x1
 2049 0286 9A000000 		.4byte	0x9a
 2050 028a 8C030000 		.4byte	.LFB7
 2051 028e 20040000 		.4byte	.LFE7
 2052 0292 E0010000 		.4byte	.LLST5
 2053 0296 01       		.byte	0x1
 2054 0297 C6020000 		.4byte	0x2c6
 2055 029b 0D       		.uleb128 0xd
 2056 029c 54010000 		.4byte	.LASF12
 2057 02a0 01       		.byte	0x1
 2058 02a1 A0       		.byte	0xa0
 2059 02a2 19010000 		.4byte	0x119
 2060 02a6 02       		.byte	0x2
 2061 02a7 91       		.byte	0x91
 2062 02a8 74       		.sleb128 -12
 2063 02a9 0D       		.uleb128 0xd
 2064 02aa B5010000 		.4byte	.LASF20
 2065 02ae 01       		.byte	0x1
 2066 02af A0       		.byte	0xa0
 2067 02b0 7A000000 		.4byte	0x7a
 2068 02b4 02       		.byte	0x2
 2069 02b5 91       		.byte	0x91
 2070 02b6 70       		.sleb128 -16
 2071 02b7 0D       		.uleb128 0xd
 2072 02b8 BB010000 		.4byte	.LASF21
 2073 02bc 01       		.byte	0x1
 2074 02bd A0       		.byte	0xa0
 2075 02be 78000000 		.4byte	0x78
 2076 02c2 02       		.byte	0x2
 2077 02c3 91       		.byte	0x91
 2078 02c4 6C       		.sleb128 -20
 2079 02c5 00       		.byte	0
 2080 02c6 0C       		.uleb128 0xc
 2081 02c7 01       		.byte	0x1
 2082 02c8 A8000000 		.4byte	.LASF28
 2083 02cc 01       		.byte	0x1
 2084 02cd 88       		.byte	0x88
 2085 02ce 01       		.byte	0x1
 2086 02cf 9A000000 		.4byte	0x9a
 2087 02d3 F8020000 		.4byte	.LFB6
 2088 02d7 8C030000 		.4byte	.LFE6
 2089 02db 30020000 		.4byte	.LLST4
 2090 02df 01       		.byte	0x1
 2091 02e0 0F030000 		.4byte	0x30f
 2092 02e4 0D       		.uleb128 0xd
 2093 02e5 54010000 		.4byte	.LASF12
 2094 02e9 01       		.byte	0x1
 2095 02ea 88       		.byte	0x88
 2096 02eb 19010000 		.4byte	0x119
 2097 02ef 02       		.byte	0x2
ARM GAS  G:\Users\Jaxb\AppData\Local\Temp\ccUb5Hmi.s 			page 47


 2098 02f0 91       		.byte	0x91
 2099 02f1 74       		.sleb128 -12
 2100 02f2 0D       		.uleb128 0xd
 2101 02f3 B5010000 		.4byte	.LASF20
 2102 02f7 01       		.byte	0x1
 2103 02f8 88       		.byte	0x88
 2104 02f9 7A000000 		.4byte	0x7a
 2105 02fd 02       		.byte	0x2
 2106 02fe 91       		.byte	0x91
 2107 02ff 70       		.sleb128 -16
 2108 0300 0D       		.uleb128 0xd
 2109 0301 BB010000 		.4byte	.LASF21
 2110 0305 01       		.byte	0x1
 2111 0306 88       		.byte	0x88
 2112 0307 78000000 		.4byte	0x78
 2113 030b 02       		.byte	0x2
 2114 030c 91       		.byte	0x91
 2115 030d 6C       		.sleb128 -20
 2116 030e 00       		.byte	0
 2117 030f 0C       		.uleb128 0xc
 2118 0310 01       		.byte	0x1
 2119 0311 00000000 		.4byte	.LASF29
 2120 0315 01       		.byte	0x1
 2121 0316 70       		.byte	0x70
 2122 0317 01       		.byte	0x1
 2123 0318 9A000000 		.4byte	0x9a
 2124 031c 80020000 		.4byte	.LFB5
 2125 0320 F8020000 		.4byte	.LFE5
 2126 0324 80020000 		.4byte	.LLST3
 2127 0328 01       		.byte	0x1
 2128 0329 4A030000 		.4byte	0x34a
 2129 032d 0D       		.uleb128 0xd
 2130 032e 54010000 		.4byte	.LASF12
 2131 0332 01       		.byte	0x1
 2132 0333 70       		.byte	0x70
 2133 0334 19010000 		.4byte	0x119
 2134 0338 02       		.byte	0x2
 2135 0339 91       		.byte	0x91
 2136 033a 74       		.sleb128 -12
 2137 033b 0D       		.uleb128 0xd
 2138 033c B0020000 		.4byte	.LASF30
 2139 0340 01       		.byte	0x1
 2140 0341 70       		.byte	0x70
 2141 0342 78000000 		.4byte	0x78
 2142 0346 02       		.byte	0x2
 2143 0347 91       		.byte	0x91
 2144 0348 70       		.sleb128 -16
 2145 0349 00       		.byte	0
 2146 034a 0C       		.uleb128 0xc
 2147 034b 01       		.byte	0x1
 2148 034c 45000000 		.4byte	.LASF31
 2149 0350 01       		.byte	0x1
 2150 0351 4F       		.byte	0x4f
 2151 0352 01       		.byte	0x1
 2152 0353 9A000000 		.4byte	0x9a
 2153 0357 A0010000 		.4byte	.LFB4
 2154 035b 80020000 		.4byte	.LFE4
ARM GAS  G:\Users\Jaxb\AppData\Local\Temp\ccUb5Hmi.s 			page 48


 2155 035f D0020000 		.4byte	.LLST2
 2156 0363 01       		.byte	0x1
 2157 0364 85030000 		.4byte	0x385
 2158 0368 0D       		.uleb128 0xd
 2159 0369 54010000 		.4byte	.LASF12
 2160 036d 01       		.byte	0x1
 2161 036e 4F       		.byte	0x4f
 2162 036f 19010000 		.4byte	0x119
 2163 0373 02       		.byte	0x2
 2164 0374 91       		.byte	0x91
 2165 0375 74       		.sleb128 -12
 2166 0376 0D       		.uleb128 0xd
 2167 0377 F8000000 		.4byte	.LASF32
 2168 037b 01       		.byte	0x1
 2169 037c 4F       		.byte	0x4f
 2170 037d 78000000 		.4byte	0x78
 2171 0381 02       		.byte	0x2
 2172 0382 91       		.byte	0x91
 2173 0383 70       		.sleb128 -16
 2174 0384 00       		.byte	0
 2175 0385 0F       		.uleb128 0xf
 2176 0386 E5010000 		.4byte	.LASF42
 2177 038a 01       		.byte	0x1
 2178 038b 2B       		.byte	0x2b
 2179 038c 01       		.byte	0x1
 2180 038d 9A000000 		.4byte	0x9a
 2181 0391 A4000000 		.4byte	.LFB3
 2182 0395 A0010000 		.4byte	.LFE3
 2183 0399 20030000 		.4byte	.LLST1
 2184 039d 01       		.byte	0x1
 2185 039e BF030000 		.4byte	0x3bf
 2186 03a2 0D       		.uleb128 0xd
 2187 03a3 54010000 		.4byte	.LASF12
 2188 03a7 01       		.byte	0x1
 2189 03a8 2B       		.byte	0x2b
 2190 03a9 19010000 		.4byte	0x119
 2191 03ad 02       		.byte	0x2
 2192 03ae 91       		.byte	0x91
 2193 03af 6C       		.sleb128 -20
 2194 03b0 10       		.uleb128 0x10
 2195 03b1 C9020000 		.4byte	.LASF34
 2196 03b5 01       		.byte	0x1
 2197 03b6 30       		.byte	0x30
 2198 03b7 78000000 		.4byte	0x78
 2199 03bb 02       		.byte	0x2
 2200 03bc 91       		.byte	0x91
 2201 03bd 74       		.sleb128 -12
 2202 03be 00       		.byte	0
 2203 03bf 11       		.uleb128 0x11
 2204 03c0 01       		.byte	0x1
 2205 03c1 56000000 		.4byte	.LASF43
 2206 03c5 01       		.byte	0x1
 2207 03c6 0B       		.byte	0xb
 2208 03c7 01       		.byte	0x1
 2209 03c8 9A000000 		.4byte	0x9a
 2210 03cc 00000000 		.4byte	.LFB2
 2211 03d0 A4000000 		.4byte	.LFE2
ARM GAS  G:\Users\Jaxb\AppData\Local\Temp\ccUb5Hmi.s 			page 49


 2212 03d4 70030000 		.4byte	.LLST0
 2213 03d8 01       		.byte	0x1
 2214 03d9 0D       		.uleb128 0xd
 2215 03da 54010000 		.4byte	.LASF12
 2216 03de 01       		.byte	0x1
 2217 03df 0B       		.byte	0xb
 2218 03e0 19010000 		.4byte	0x119
 2219 03e4 02       		.byte	0x2
 2220 03e5 91       		.byte	0x91
 2221 03e6 74       		.sleb128 -12
 2222 03e7 0D       		.uleb128 0xd
 2223 03e8 D4020000 		.4byte	.LASF35
 2224 03ec 01       		.byte	0x1
 2225 03ed 0B       		.byte	0xb
 2226 03ee 7A000000 		.4byte	0x7a
 2227 03f2 02       		.byte	0x2
 2228 03f3 91       		.byte	0x91
 2229 03f4 70       		.sleb128 -16
 2230 03f5 0D       		.uleb128 0xd
 2231 03f6 9B000000 		.4byte	.LASF36
 2232 03fa 01       		.byte	0x1
 2233 03fb 0B       		.byte	0xb
 2234 03fc 9A000000 		.4byte	0x9a
 2235 0400 02       		.byte	0x2
 2236 0401 91       		.byte	0x91
 2237 0402 6C       		.sleb128 -20
 2238 0403 0D       		.uleb128 0xd
 2239 0404 CA010000 		.4byte	.LASF4
 2240 0408 01       		.byte	0x1
 2241 0409 0B       		.byte	0xb
 2242 040a 7A000000 		.4byte	0x7a
 2243 040e 02       		.byte	0x2
 2244 040f 91       		.byte	0x91
 2245 0410 68       		.sleb128 -24
 2246 0411 00       		.byte	0
 2247 0412 00       		.byte	0
 2248              		.section	.debug_abbrev,"",%progbits
 2249              	.Ldebug_abbrev0:
 2250 0000 01       		.uleb128 0x1
 2251 0001 11       		.uleb128 0x11
 2252 0002 01       		.byte	0x1
 2253 0003 25       		.uleb128 0x25
 2254 0004 0E       		.uleb128 0xe
 2255 0005 13       		.uleb128 0x13
 2256 0006 0B       		.uleb128 0xb
 2257 0007 03       		.uleb128 0x3
 2258 0008 0E       		.uleb128 0xe
 2259 0009 1B       		.uleb128 0x1b
 2260 000a 0E       		.uleb128 0xe
 2261 000b 11       		.uleb128 0x11
 2262 000c 01       		.uleb128 0x1
 2263 000d 12       		.uleb128 0x12
 2264 000e 01       		.uleb128 0x1
 2265 000f 10       		.uleb128 0x10
 2266 0010 06       		.uleb128 0x6
 2267 0011 00       		.byte	0
 2268 0012 00       		.byte	0
ARM GAS  G:\Users\Jaxb\AppData\Local\Temp\ccUb5Hmi.s 			page 50


 2269 0013 02       		.uleb128 0x2
 2270 0014 13       		.uleb128 0x13
 2271 0015 01       		.byte	0x1
 2272 0016 03       		.uleb128 0x3
 2273 0017 0E       		.uleb128 0xe
 2274 0018 0B       		.uleb128 0xb
 2275 0019 0B       		.uleb128 0xb
 2276 001a 3A       		.uleb128 0x3a
 2277 001b 0B       		.uleb128 0xb
 2278 001c 3B       		.uleb128 0x3b
 2279 001d 0B       		.uleb128 0xb
 2280 001e 01       		.uleb128 0x1
 2281 001f 13       		.uleb128 0x13
 2282 0020 00       		.byte	0
 2283 0021 00       		.byte	0
 2284 0022 03       		.uleb128 0x3
 2285 0023 0D       		.uleb128 0xd
 2286 0024 00       		.byte	0
 2287 0025 03       		.uleb128 0x3
 2288 0026 0E       		.uleb128 0xe
 2289 0027 3A       		.uleb128 0x3a
 2290 0028 0B       		.uleb128 0xb
 2291 0029 3B       		.uleb128 0x3b
 2292 002a 0B       		.uleb128 0xb
 2293 002b 49       		.uleb128 0x49
 2294 002c 13       		.uleb128 0x13
 2295 002d 38       		.uleb128 0x38
 2296 002e 0A       		.uleb128 0xa
 2297 002f 00       		.byte	0
 2298 0030 00       		.byte	0
 2299 0031 04       		.uleb128 0x4
 2300 0032 0F       		.uleb128 0xf
 2301 0033 00       		.byte	0
 2302 0034 0B       		.uleb128 0xb
 2303 0035 0B       		.uleb128 0xb
 2304 0036 00       		.byte	0
 2305 0037 00       		.byte	0
 2306 0038 05       		.uleb128 0x5
 2307 0039 24       		.uleb128 0x24
 2308 003a 00       		.byte	0
 2309 003b 0B       		.uleb128 0xb
 2310 003c 0B       		.uleb128 0xb
 2311 003d 3E       		.uleb128 0x3e
 2312 003e 0B       		.uleb128 0xb
 2313 003f 03       		.uleb128 0x3
 2314 0040 0E       		.uleb128 0xe
 2315 0041 00       		.byte	0
 2316 0042 00       		.byte	0
 2317 0043 06       		.uleb128 0x6
 2318 0044 16       		.uleb128 0x16
 2319 0045 00       		.byte	0
 2320 0046 03       		.uleb128 0x3
 2321 0047 0E       		.uleb128 0xe
 2322 0048 3A       		.uleb128 0x3a
 2323 0049 0B       		.uleb128 0xb
 2324 004a 3B       		.uleb128 0x3b
 2325 004b 0B       		.uleb128 0xb
ARM GAS  G:\Users\Jaxb\AppData\Local\Temp\ccUb5Hmi.s 			page 51


 2326 004c 49       		.uleb128 0x49
 2327 004d 13       		.uleb128 0x13
 2328 004e 00       		.byte	0
 2329 004f 00       		.byte	0
 2330 0050 07       		.uleb128 0x7
 2331 0051 24       		.uleb128 0x24
 2332 0052 00       		.byte	0
 2333 0053 0B       		.uleb128 0xb
 2334 0054 0B       		.uleb128 0xb
 2335 0055 3E       		.uleb128 0x3e
 2336 0056 0B       		.uleb128 0xb
 2337 0057 03       		.uleb128 0x3
 2338 0058 08       		.uleb128 0x8
 2339 0059 00       		.byte	0
 2340 005a 00       		.byte	0
 2341 005b 08       		.uleb128 0x8
 2342 005c 2E       		.uleb128 0x2e
 2343 005d 01       		.byte	0x1
 2344 005e 3F       		.uleb128 0x3f
 2345 005f 0C       		.uleb128 0xc
 2346 0060 03       		.uleb128 0x3
 2347 0061 0E       		.uleb128 0xe
 2348 0062 3A       		.uleb128 0x3a
 2349 0063 0B       		.uleb128 0xb
 2350 0064 3B       		.uleb128 0x3b
 2351 0065 05       		.uleb128 0x5
 2352 0066 27       		.uleb128 0x27
 2353 0067 0C       		.uleb128 0xc
 2354 0068 49       		.uleb128 0x49
 2355 0069 13       		.uleb128 0x13
 2356 006a 11       		.uleb128 0x11
 2357 006b 01       		.uleb128 0x1
 2358 006c 12       		.uleb128 0x12
 2359 006d 01       		.uleb128 0x1
 2360 006e 40       		.uleb128 0x40
 2361 006f 06       		.uleb128 0x6
 2362 0070 9642     		.uleb128 0x2116
 2363 0072 0C       		.uleb128 0xc
 2364 0073 01       		.uleb128 0x1
 2365 0074 13       		.uleb128 0x13
 2366 0075 00       		.byte	0
 2367 0076 00       		.byte	0
 2368 0077 09       		.uleb128 0x9
 2369 0078 05       		.uleb128 0x5
 2370 0079 00       		.byte	0
 2371 007a 03       		.uleb128 0x3
 2372 007b 0E       		.uleb128 0xe
 2373 007c 3A       		.uleb128 0x3a
 2374 007d 0B       		.uleb128 0xb
 2375 007e 3B       		.uleb128 0x3b
 2376 007f 05       		.uleb128 0x5
 2377 0080 49       		.uleb128 0x49
 2378 0081 13       		.uleb128 0x13
 2379 0082 02       		.uleb128 0x2
 2380 0083 0A       		.uleb128 0xa
 2381 0084 00       		.byte	0
 2382 0085 00       		.byte	0
ARM GAS  G:\Users\Jaxb\AppData\Local\Temp\ccUb5Hmi.s 			page 52


 2383 0086 0A       		.uleb128 0xa
 2384 0087 34       		.uleb128 0x34
 2385 0088 00       		.byte	0
 2386 0089 03       		.uleb128 0x3
 2387 008a 0E       		.uleb128 0xe
 2388 008b 3A       		.uleb128 0x3a
 2389 008c 0B       		.uleb128 0xb
 2390 008d 3B       		.uleb128 0x3b
 2391 008e 05       		.uleb128 0x5
 2392 008f 49       		.uleb128 0x49
 2393 0090 13       		.uleb128 0x13
 2394 0091 02       		.uleb128 0x2
 2395 0092 0A       		.uleb128 0xa
 2396 0093 00       		.byte	0
 2397 0094 00       		.byte	0
 2398 0095 0B       		.uleb128 0xb
 2399 0096 0F       		.uleb128 0xf
 2400 0097 00       		.byte	0
 2401 0098 0B       		.uleb128 0xb
 2402 0099 0B       		.uleb128 0xb
 2403 009a 49       		.uleb128 0x49
 2404 009b 13       		.uleb128 0x13
 2405 009c 00       		.byte	0
 2406 009d 00       		.byte	0
 2407 009e 0C       		.uleb128 0xc
 2408 009f 2E       		.uleb128 0x2e
 2409 00a0 01       		.byte	0x1
 2410 00a1 3F       		.uleb128 0x3f
 2411 00a2 0C       		.uleb128 0xc
 2412 00a3 03       		.uleb128 0x3
 2413 00a4 0E       		.uleb128 0xe
 2414 00a5 3A       		.uleb128 0x3a
 2415 00a6 0B       		.uleb128 0xb
 2416 00a7 3B       		.uleb128 0x3b
 2417 00a8 0B       		.uleb128 0xb
 2418 00a9 27       		.uleb128 0x27
 2419 00aa 0C       		.uleb128 0xc
 2420 00ab 49       		.uleb128 0x49
 2421 00ac 13       		.uleb128 0x13
 2422 00ad 11       		.uleb128 0x11
 2423 00ae 01       		.uleb128 0x1
 2424 00af 12       		.uleb128 0x12
 2425 00b0 01       		.uleb128 0x1
 2426 00b1 40       		.uleb128 0x40
 2427 00b2 06       		.uleb128 0x6
 2428 00b3 9642     		.uleb128 0x2116
 2429 00b5 0C       		.uleb128 0xc
 2430 00b6 01       		.uleb128 0x1
 2431 00b7 13       		.uleb128 0x13
 2432 00b8 00       		.byte	0
 2433 00b9 00       		.byte	0
 2434 00ba 0D       		.uleb128 0xd
 2435 00bb 05       		.uleb128 0x5
 2436 00bc 00       		.byte	0
 2437 00bd 03       		.uleb128 0x3
 2438 00be 0E       		.uleb128 0xe
 2439 00bf 3A       		.uleb128 0x3a
ARM GAS  G:\Users\Jaxb\AppData\Local\Temp\ccUb5Hmi.s 			page 53


 2440 00c0 0B       		.uleb128 0xb
 2441 00c1 3B       		.uleb128 0x3b
 2442 00c2 0B       		.uleb128 0xb
 2443 00c3 49       		.uleb128 0x49
 2444 00c4 13       		.uleb128 0x13
 2445 00c5 02       		.uleb128 0x2
 2446 00c6 0A       		.uleb128 0xa
 2447 00c7 00       		.byte	0
 2448 00c8 00       		.byte	0
 2449 00c9 0E       		.uleb128 0xe
 2450 00ca 05       		.uleb128 0x5
 2451 00cb 00       		.byte	0
 2452 00cc 03       		.uleb128 0x3
 2453 00cd 08       		.uleb128 0x8
 2454 00ce 3A       		.uleb128 0x3a
 2455 00cf 0B       		.uleb128 0xb
 2456 00d0 3B       		.uleb128 0x3b
 2457 00d1 0B       		.uleb128 0xb
 2458 00d2 49       		.uleb128 0x49
 2459 00d3 13       		.uleb128 0x13
 2460 00d4 02       		.uleb128 0x2
 2461 00d5 0A       		.uleb128 0xa
 2462 00d6 00       		.byte	0
 2463 00d7 00       		.byte	0
 2464 00d8 0F       		.uleb128 0xf
 2465 00d9 2E       		.uleb128 0x2e
 2466 00da 01       		.byte	0x1
 2467 00db 03       		.uleb128 0x3
 2468 00dc 0E       		.uleb128 0xe
 2469 00dd 3A       		.uleb128 0x3a
 2470 00de 0B       		.uleb128 0xb
 2471 00df 3B       		.uleb128 0x3b
 2472 00e0 0B       		.uleb128 0xb
 2473 00e1 27       		.uleb128 0x27
 2474 00e2 0C       		.uleb128 0xc
 2475 00e3 49       		.uleb128 0x49
 2476 00e4 13       		.uleb128 0x13
 2477 00e5 11       		.uleb128 0x11
 2478 00e6 01       		.uleb128 0x1
 2479 00e7 12       		.uleb128 0x12
 2480 00e8 01       		.uleb128 0x1
 2481 00e9 40       		.uleb128 0x40
 2482 00ea 06       		.uleb128 0x6
 2483 00eb 9642     		.uleb128 0x2116
 2484 00ed 0C       		.uleb128 0xc
 2485 00ee 01       		.uleb128 0x1
 2486 00ef 13       		.uleb128 0x13
 2487 00f0 00       		.byte	0
 2488 00f1 00       		.byte	0
 2489 00f2 10       		.uleb128 0x10
 2490 00f3 34       		.uleb128 0x34
 2491 00f4 00       		.byte	0
 2492 00f5 03       		.uleb128 0x3
 2493 00f6 0E       		.uleb128 0xe
 2494 00f7 3A       		.uleb128 0x3a
 2495 00f8 0B       		.uleb128 0xb
 2496 00f9 3B       		.uleb128 0x3b
ARM GAS  G:\Users\Jaxb\AppData\Local\Temp\ccUb5Hmi.s 			page 54


 2497 00fa 0B       		.uleb128 0xb
 2498 00fb 49       		.uleb128 0x49
 2499 00fc 13       		.uleb128 0x13
 2500 00fd 02       		.uleb128 0x2
 2501 00fe 0A       		.uleb128 0xa
 2502 00ff 00       		.byte	0
 2503 0100 00       		.byte	0
 2504 0101 11       		.uleb128 0x11
 2505 0102 2E       		.uleb128 0x2e
 2506 0103 01       		.byte	0x1
 2507 0104 3F       		.uleb128 0x3f
 2508 0105 0C       		.uleb128 0xc
 2509 0106 03       		.uleb128 0x3
 2510 0107 0E       		.uleb128 0xe
 2511 0108 3A       		.uleb128 0x3a
 2512 0109 0B       		.uleb128 0xb
 2513 010a 3B       		.uleb128 0x3b
 2514 010b 0B       		.uleb128 0xb
 2515 010c 27       		.uleb128 0x27
 2516 010d 0C       		.uleb128 0xc
 2517 010e 49       		.uleb128 0x49
 2518 010f 13       		.uleb128 0x13
 2519 0110 11       		.uleb128 0x11
 2520 0111 01       		.uleb128 0x1
 2521 0112 12       		.uleb128 0x12
 2522 0113 01       		.uleb128 0x1
 2523 0114 40       		.uleb128 0x40
 2524 0115 06       		.uleb128 0x6
 2525 0116 9642     		.uleb128 0x2116
 2526 0118 0C       		.uleb128 0xc
 2527 0119 00       		.byte	0
 2528 011a 00       		.byte	0
 2529 011b 00       		.byte	0
 2530              		.section	.debug_loc,"",%progbits
 2531              	.Ldebug_loc0:
 2532              	.LLST11:
 2533 0000 6C070000 		.4byte	.LFB13-.Ltext0
 2534 0004 6E070000 		.4byte	.LCFI55-.Ltext0
 2535 0008 0200     		.2byte	0x2
 2536 000a 7D       		.byte	0x7d
 2537 000b 00       		.sleb128 0
 2538 000c 6E070000 		.4byte	.LCFI55-.Ltext0
 2539 0010 70070000 		.4byte	.LCFI56-.Ltext0
 2540 0014 0200     		.2byte	0x2
 2541 0016 7D       		.byte	0x7d
 2542 0017 08       		.sleb128 8
 2543 0018 70070000 		.4byte	.LCFI56-.Ltext0
 2544 001c 72070000 		.4byte	.LCFI57-.Ltext0
 2545 0020 0200     		.2byte	0x2
 2546 0022 7D       		.byte	0x7d
 2547 0023 20       		.sleb128 32
 2548 0024 72070000 		.4byte	.LCFI57-.Ltext0
 2549 0028 70080000 		.4byte	.LCFI58-.Ltext0
 2550 002c 0200     		.2byte	0x2
 2551 002e 77       		.byte	0x77
 2552 002f 20       		.sleb128 32
 2553 0030 70080000 		.4byte	.LCFI58-.Ltext0
ARM GAS  G:\Users\Jaxb\AppData\Local\Temp\ccUb5Hmi.s 			page 55


 2554 0034 72080000 		.4byte	.LCFI59-.Ltext0
 2555 0038 0200     		.2byte	0x2
 2556 003a 77       		.byte	0x77
 2557 003b 08       		.sleb128 8
 2558 003c 72080000 		.4byte	.LCFI59-.Ltext0
 2559 0040 84080000 		.4byte	.LFE13-.Ltext0
 2560 0044 0200     		.2byte	0x2
 2561 0046 7D       		.byte	0x7d
 2562 0047 08       		.sleb128 8
 2563 0048 00000000 		.4byte	0
 2564 004c 00000000 		.4byte	0
 2565              	.LLST10:
 2566 0050 A8060000 		.4byte	.LFB12-.Ltext0
 2567 0054 AA060000 		.4byte	.LCFI50-.Ltext0
 2568 0058 0200     		.2byte	0x2
 2569 005a 7D       		.byte	0x7d
 2570 005b 00       		.sleb128 0
 2571 005c AA060000 		.4byte	.LCFI50-.Ltext0
 2572 0060 AC060000 		.4byte	.LCFI51-.Ltext0
 2573 0064 0200     		.2byte	0x2
 2574 0066 7D       		.byte	0x7d
 2575 0067 08       		.sleb128 8
 2576 0068 AC060000 		.4byte	.LCFI51-.Ltext0
 2577 006c AE060000 		.4byte	.LCFI52-.Ltext0
 2578 0070 0200     		.2byte	0x2
 2579 0072 7D       		.byte	0x7d
 2580 0073 18       		.sleb128 24
 2581 0074 AE060000 		.4byte	.LCFI52-.Ltext0
 2582 0078 56070000 		.4byte	.LCFI53-.Ltext0
 2583 007c 0200     		.2byte	0x2
 2584 007e 77       		.byte	0x77
 2585 007f 18       		.sleb128 24
 2586 0080 56070000 		.4byte	.LCFI53-.Ltext0
 2587 0084 58070000 		.4byte	.LCFI54-.Ltext0
 2588 0088 0200     		.2byte	0x2
 2589 008a 77       		.byte	0x77
 2590 008b 08       		.sleb128 8
 2591 008c 58070000 		.4byte	.LCFI54-.Ltext0
 2592 0090 6C070000 		.4byte	.LFE12-.Ltext0
 2593 0094 0200     		.2byte	0x2
 2594 0096 7D       		.byte	0x7d
 2595 0097 08       		.sleb128 8
 2596 0098 00000000 		.4byte	0
 2597 009c 00000000 		.4byte	0
 2598              	.LLST9:
 2599 00a0 D4050000 		.4byte	.LFB11-.Ltext0
 2600 00a4 D6050000 		.4byte	.LCFI45-.Ltext0
 2601 00a8 0200     		.2byte	0x2
 2602 00aa 7D       		.byte	0x7d
 2603 00ab 00       		.sleb128 0
 2604 00ac D6050000 		.4byte	.LCFI45-.Ltext0
 2605 00b0 D8050000 		.4byte	.LCFI46-.Ltext0
 2606 00b4 0200     		.2byte	0x2
 2607 00b6 7D       		.byte	0x7d
 2608 00b7 08       		.sleb128 8
 2609 00b8 D8050000 		.4byte	.LCFI46-.Ltext0
 2610 00bc DA050000 		.4byte	.LCFI47-.Ltext0
ARM GAS  G:\Users\Jaxb\AppData\Local\Temp\ccUb5Hmi.s 			page 56


 2611 00c0 0200     		.2byte	0x2
 2612 00c2 7D       		.byte	0x7d
 2613 00c3 18       		.sleb128 24
 2614 00c4 DA050000 		.4byte	.LCFI47-.Ltext0
 2615 00c8 98060000 		.4byte	.LCFI48-.Ltext0
 2616 00cc 0200     		.2byte	0x2
 2617 00ce 77       		.byte	0x77
 2618 00cf 18       		.sleb128 24
 2619 00d0 98060000 		.4byte	.LCFI48-.Ltext0
 2620 00d4 9A060000 		.4byte	.LCFI49-.Ltext0
 2621 00d8 0200     		.2byte	0x2
 2622 00da 77       		.byte	0x77
 2623 00db 08       		.sleb128 8
 2624 00dc 9A060000 		.4byte	.LCFI49-.Ltext0
 2625 00e0 A8060000 		.4byte	.LFE11-.Ltext0
 2626 00e4 0200     		.2byte	0x2
 2627 00e6 7D       		.byte	0x7d
 2628 00e7 08       		.sleb128 8
 2629 00e8 00000000 		.4byte	0
 2630 00ec 00000000 		.4byte	0
 2631              	.LLST8:
 2632 00f0 F0040000 		.4byte	.LFB10-.Ltext0
 2633 00f4 F2040000 		.4byte	.LCFI40-.Ltext0
 2634 00f8 0200     		.2byte	0x2
 2635 00fa 7D       		.byte	0x7d
 2636 00fb 00       		.sleb128 0
 2637 00fc F2040000 		.4byte	.LCFI40-.Ltext0
 2638 0100 F4040000 		.4byte	.LCFI41-.Ltext0
 2639 0104 0200     		.2byte	0x2
 2640 0106 7D       		.byte	0x7d
 2641 0107 08       		.sleb128 8
 2642 0108 F4040000 		.4byte	.LCFI41-.Ltext0
 2643 010c F6040000 		.4byte	.LCFI42-.Ltext0
 2644 0110 0200     		.2byte	0x2
 2645 0112 7D       		.byte	0x7d
 2646 0113 18       		.sleb128 24
 2647 0114 F6040000 		.4byte	.LCFI42-.Ltext0
 2648 0118 C0050000 		.4byte	.LCFI43-.Ltext0
 2649 011c 0200     		.2byte	0x2
 2650 011e 77       		.byte	0x77
 2651 011f 18       		.sleb128 24
 2652 0120 C0050000 		.4byte	.LCFI43-.Ltext0
 2653 0124 C2050000 		.4byte	.LCFI44-.Ltext0
 2654 0128 0200     		.2byte	0x2
 2655 012a 77       		.byte	0x77
 2656 012b 08       		.sleb128 8
 2657 012c C2050000 		.4byte	.LCFI44-.Ltext0
 2658 0130 D4050000 		.4byte	.LFE10-.Ltext0
 2659 0134 0200     		.2byte	0x2
 2660 0136 7D       		.byte	0x7d
 2661 0137 08       		.sleb128 8
 2662 0138 00000000 		.4byte	0
 2663 013c 00000000 		.4byte	0
 2664              	.LLST7:
 2665 0140 AC040000 		.4byte	.LFB9-.Ltext0
 2666 0144 AE040000 		.4byte	.LCFI35-.Ltext0
 2667 0148 0200     		.2byte	0x2
ARM GAS  G:\Users\Jaxb\AppData\Local\Temp\ccUb5Hmi.s 			page 57


 2668 014a 7D       		.byte	0x7d
 2669 014b 00       		.sleb128 0
 2670 014c AE040000 		.4byte	.LCFI35-.Ltext0
 2671 0150 B0040000 		.4byte	.LCFI36-.Ltext0
 2672 0154 0200     		.2byte	0x2
 2673 0156 7D       		.byte	0x7d
 2674 0157 08       		.sleb128 8
 2675 0158 B0040000 		.4byte	.LCFI36-.Ltext0
 2676 015c B2040000 		.4byte	.LCFI37-.Ltext0
 2677 0160 0200     		.2byte	0x2
 2678 0162 7D       		.byte	0x7d
 2679 0163 10       		.sleb128 16
 2680 0164 B2040000 		.4byte	.LCFI37-.Ltext0
 2681 0168 E4040000 		.4byte	.LCFI38-.Ltext0
 2682 016c 0200     		.2byte	0x2
 2683 016e 77       		.byte	0x77
 2684 016f 10       		.sleb128 16
 2685 0170 E4040000 		.4byte	.LCFI38-.Ltext0
 2686 0174 E6040000 		.4byte	.LCFI39-.Ltext0
 2687 0178 0200     		.2byte	0x2
 2688 017a 77       		.byte	0x77
 2689 017b 08       		.sleb128 8
 2690 017c E6040000 		.4byte	.LCFI39-.Ltext0
 2691 0180 F0040000 		.4byte	.LFE9-.Ltext0
 2692 0184 0200     		.2byte	0x2
 2693 0186 7D       		.byte	0x7d
 2694 0187 08       		.sleb128 8
 2695 0188 00000000 		.4byte	0
 2696 018c 00000000 		.4byte	0
 2697              	.LLST6:
 2698 0190 20040000 		.4byte	.LFB8-.Ltext0
 2699 0194 22040000 		.4byte	.LCFI30-.Ltext0
 2700 0198 0200     		.2byte	0x2
 2701 019a 7D       		.byte	0x7d
 2702 019b 00       		.sleb128 0
 2703 019c 22040000 		.4byte	.LCFI30-.Ltext0
 2704 01a0 24040000 		.4byte	.LCFI31-.Ltext0
 2705 01a4 0200     		.2byte	0x2
 2706 01a6 7D       		.byte	0x7d
 2707 01a7 08       		.sleb128 8
 2708 01a8 24040000 		.4byte	.LCFI31-.Ltext0
 2709 01ac 26040000 		.4byte	.LCFI32-.Ltext0
 2710 01b0 0200     		.2byte	0x2
 2711 01b2 7D       		.byte	0x7d
 2712 01b3 18       		.sleb128 24
 2713 01b4 26040000 		.4byte	.LCFI32-.Ltext0
 2714 01b8 96040000 		.4byte	.LCFI33-.Ltext0
 2715 01bc 0200     		.2byte	0x2
 2716 01be 77       		.byte	0x77
 2717 01bf 18       		.sleb128 24
 2718 01c0 96040000 		.4byte	.LCFI33-.Ltext0
 2719 01c4 98040000 		.4byte	.LCFI34-.Ltext0
 2720 01c8 0200     		.2byte	0x2
 2721 01ca 77       		.byte	0x77
 2722 01cb 08       		.sleb128 8
 2723 01cc 98040000 		.4byte	.LCFI34-.Ltext0
 2724 01d0 AC040000 		.4byte	.LFE8-.Ltext0
ARM GAS  G:\Users\Jaxb\AppData\Local\Temp\ccUb5Hmi.s 			page 58


 2725 01d4 0200     		.2byte	0x2
 2726 01d6 7D       		.byte	0x7d
 2727 01d7 08       		.sleb128 8
 2728 01d8 00000000 		.4byte	0
 2729 01dc 00000000 		.4byte	0
 2730              	.LLST5:
 2731 01e0 8C030000 		.4byte	.LFB7-.Ltext0
 2732 01e4 8E030000 		.4byte	.LCFI25-.Ltext0
 2733 01e8 0200     		.2byte	0x2
 2734 01ea 7D       		.byte	0x7d
 2735 01eb 00       		.sleb128 0
 2736 01ec 8E030000 		.4byte	.LCFI25-.Ltext0
 2737 01f0 90030000 		.4byte	.LCFI26-.Ltext0
 2738 01f4 0200     		.2byte	0x2
 2739 01f6 7D       		.byte	0x7d
 2740 01f7 08       		.sleb128 8
 2741 01f8 90030000 		.4byte	.LCFI26-.Ltext0
 2742 01fc 92030000 		.4byte	.LCFI27-.Ltext0
 2743 0200 0200     		.2byte	0x2
 2744 0202 7D       		.byte	0x7d
 2745 0203 18       		.sleb128 24
 2746 0204 92030000 		.4byte	.LCFI27-.Ltext0
 2747 0208 0A040000 		.4byte	.LCFI28-.Ltext0
 2748 020c 0200     		.2byte	0x2
 2749 020e 77       		.byte	0x77
 2750 020f 18       		.sleb128 24
 2751 0210 0A040000 		.4byte	.LCFI28-.Ltext0
 2752 0214 0C040000 		.4byte	.LCFI29-.Ltext0
 2753 0218 0200     		.2byte	0x2
 2754 021a 77       		.byte	0x77
 2755 021b 08       		.sleb128 8
 2756 021c 0C040000 		.4byte	.LCFI29-.Ltext0
 2757 0220 20040000 		.4byte	.LFE7-.Ltext0
 2758 0224 0200     		.2byte	0x2
 2759 0226 7D       		.byte	0x7d
 2760 0227 08       		.sleb128 8
 2761 0228 00000000 		.4byte	0
 2762 022c 00000000 		.4byte	0
 2763              	.LLST4:
 2764 0230 F8020000 		.4byte	.LFB6-.Ltext0
 2765 0234 FA020000 		.4byte	.LCFI20-.Ltext0
 2766 0238 0200     		.2byte	0x2
 2767 023a 7D       		.byte	0x7d
 2768 023b 00       		.sleb128 0
 2769 023c FA020000 		.4byte	.LCFI20-.Ltext0
 2770 0240 FC020000 		.4byte	.LCFI21-.Ltext0
 2771 0244 0200     		.2byte	0x2
 2772 0246 7D       		.byte	0x7d
 2773 0247 08       		.sleb128 8
 2774 0248 FC020000 		.4byte	.LCFI21-.Ltext0
 2775 024c FE020000 		.4byte	.LCFI22-.Ltext0
 2776 0250 0200     		.2byte	0x2
 2777 0252 7D       		.byte	0x7d
 2778 0253 18       		.sleb128 24
 2779 0254 FE020000 		.4byte	.LCFI22-.Ltext0
 2780 0258 76030000 		.4byte	.LCFI23-.Ltext0
 2781 025c 0200     		.2byte	0x2
ARM GAS  G:\Users\Jaxb\AppData\Local\Temp\ccUb5Hmi.s 			page 59


 2782 025e 77       		.byte	0x77
 2783 025f 18       		.sleb128 24
 2784 0260 76030000 		.4byte	.LCFI23-.Ltext0
 2785 0264 78030000 		.4byte	.LCFI24-.Ltext0
 2786 0268 0200     		.2byte	0x2
 2787 026a 77       		.byte	0x77
 2788 026b 08       		.sleb128 8
 2789 026c 78030000 		.4byte	.LCFI24-.Ltext0
 2790 0270 8C030000 		.4byte	.LFE6-.Ltext0
 2791 0274 0200     		.2byte	0x2
 2792 0276 7D       		.byte	0x7d
 2793 0277 08       		.sleb128 8
 2794 0278 00000000 		.4byte	0
 2795 027c 00000000 		.4byte	0
 2796              	.LLST3:
 2797 0280 80020000 		.4byte	.LFB5-.Ltext0
 2798 0284 82020000 		.4byte	.LCFI15-.Ltext0
 2799 0288 0200     		.2byte	0x2
 2800 028a 7D       		.byte	0x7d
 2801 028b 00       		.sleb128 0
 2802 028c 82020000 		.4byte	.LCFI15-.Ltext0
 2803 0290 84020000 		.4byte	.LCFI16-.Ltext0
 2804 0294 0200     		.2byte	0x2
 2805 0296 7D       		.byte	0x7d
 2806 0297 08       		.sleb128 8
 2807 0298 84020000 		.4byte	.LCFI16-.Ltext0
 2808 029c 86020000 		.4byte	.LCFI17-.Ltext0
 2809 02a0 0200     		.2byte	0x2
 2810 02a2 7D       		.byte	0x7d
 2811 02a3 10       		.sleb128 16
 2812 02a4 86020000 		.4byte	.LCFI17-.Ltext0
 2813 02a8 EC020000 		.4byte	.LCFI18-.Ltext0
 2814 02ac 0200     		.2byte	0x2
 2815 02ae 77       		.byte	0x77
 2816 02af 10       		.sleb128 16
 2817 02b0 EC020000 		.4byte	.LCFI18-.Ltext0
 2818 02b4 EE020000 		.4byte	.LCFI19-.Ltext0
 2819 02b8 0200     		.2byte	0x2
 2820 02ba 77       		.byte	0x77
 2821 02bb 08       		.sleb128 8
 2822 02bc EE020000 		.4byte	.LCFI19-.Ltext0
 2823 02c0 F8020000 		.4byte	.LFE5-.Ltext0
 2824 02c4 0200     		.2byte	0x2
 2825 02c6 7D       		.byte	0x7d
 2826 02c7 08       		.sleb128 8
 2827 02c8 00000000 		.4byte	0
 2828 02cc 00000000 		.4byte	0
 2829              	.LLST2:
 2830 02d0 A0010000 		.4byte	.LFB4-.Ltext0
 2831 02d4 A2010000 		.4byte	.LCFI10-.Ltext0
 2832 02d8 0200     		.2byte	0x2
 2833 02da 7D       		.byte	0x7d
 2834 02db 00       		.sleb128 0
 2835 02dc A2010000 		.4byte	.LCFI10-.Ltext0
 2836 02e0 A4010000 		.4byte	.LCFI11-.Ltext0
 2837 02e4 0200     		.2byte	0x2
 2838 02e6 7D       		.byte	0x7d
ARM GAS  G:\Users\Jaxb\AppData\Local\Temp\ccUb5Hmi.s 			page 60


 2839 02e7 08       		.sleb128 8
 2840 02e8 A4010000 		.4byte	.LCFI11-.Ltext0
 2841 02ec A6010000 		.4byte	.LCFI12-.Ltext0
 2842 02f0 0200     		.2byte	0x2
 2843 02f2 7D       		.byte	0x7d
 2844 02f3 10       		.sleb128 16
 2845 02f4 A6010000 		.4byte	.LCFI12-.Ltext0
 2846 02f8 6E020000 		.4byte	.LCFI13-.Ltext0
 2847 02fc 0200     		.2byte	0x2
 2848 02fe 77       		.byte	0x77
 2849 02ff 10       		.sleb128 16
 2850 0300 6E020000 		.4byte	.LCFI13-.Ltext0
 2851 0304 70020000 		.4byte	.LCFI14-.Ltext0
 2852 0308 0200     		.2byte	0x2
 2853 030a 77       		.byte	0x77
 2854 030b 08       		.sleb128 8
 2855 030c 70020000 		.4byte	.LCFI14-.Ltext0
 2856 0310 80020000 		.4byte	.LFE4-.Ltext0
 2857 0314 0200     		.2byte	0x2
 2858 0316 7D       		.byte	0x7d
 2859 0317 08       		.sleb128 8
 2860 0318 00000000 		.4byte	0
 2861 031c 00000000 		.4byte	0
 2862              	.LLST1:
 2863 0320 A4000000 		.4byte	.LFB3-.Ltext0
 2864 0324 A6000000 		.4byte	.LCFI5-.Ltext0
 2865 0328 0200     		.2byte	0x2
 2866 032a 7D       		.byte	0x7d
 2867 032b 00       		.sleb128 0
 2868 032c A6000000 		.4byte	.LCFI5-.Ltext0
 2869 0330 A8000000 		.4byte	.LCFI6-.Ltext0
 2870 0334 0200     		.2byte	0x2
 2871 0336 7D       		.byte	0x7d
 2872 0337 08       		.sleb128 8
 2873 0338 A8000000 		.4byte	.LCFI6-.Ltext0
 2874 033c AA000000 		.4byte	.LCFI7-.Ltext0
 2875 0340 0200     		.2byte	0x2
 2876 0342 7D       		.byte	0x7d
 2877 0343 18       		.sleb128 24
 2878 0344 AA000000 		.4byte	.LCFI7-.Ltext0
 2879 0348 96010000 		.4byte	.LCFI8-.Ltext0
 2880 034c 0200     		.2byte	0x2
 2881 034e 77       		.byte	0x77
 2882 034f 18       		.sleb128 24
 2883 0350 96010000 		.4byte	.LCFI8-.Ltext0
 2884 0354 98010000 		.4byte	.LCFI9-.Ltext0
 2885 0358 0200     		.2byte	0x2
 2886 035a 77       		.byte	0x77
 2887 035b 08       		.sleb128 8
 2888 035c 98010000 		.4byte	.LCFI9-.Ltext0
 2889 0360 A0010000 		.4byte	.LFE3-.Ltext0
 2890 0364 0200     		.2byte	0x2
 2891 0366 7D       		.byte	0x7d
 2892 0367 08       		.sleb128 8
 2893 0368 00000000 		.4byte	0
 2894 036c 00000000 		.4byte	0
 2895              	.LLST0:
ARM GAS  G:\Users\Jaxb\AppData\Local\Temp\ccUb5Hmi.s 			page 61


 2896 0370 00000000 		.4byte	.LFB2-.Ltext0
 2897 0374 02000000 		.4byte	.LCFI0-.Ltext0
 2898 0378 0200     		.2byte	0x2
 2899 037a 7D       		.byte	0x7d
 2900 037b 00       		.sleb128 0
 2901 037c 02000000 		.4byte	.LCFI0-.Ltext0
 2902 0380 04000000 		.4byte	.LCFI1-.Ltext0
 2903 0384 0200     		.2byte	0x2
 2904 0386 7D       		.byte	0x7d
 2905 0387 08       		.sleb128 8
 2906 0388 04000000 		.4byte	.LCFI1-.Ltext0
 2907 038c 06000000 		.4byte	.LCFI2-.Ltext0
 2908 0390 0200     		.2byte	0x2
 2909 0392 7D       		.byte	0x7d
 2910 0393 18       		.sleb128 24
 2911 0394 06000000 		.4byte	.LCFI2-.Ltext0
 2912 0398 92000000 		.4byte	.LCFI3-.Ltext0
 2913 039c 0200     		.2byte	0x2
 2914 039e 77       		.byte	0x77
 2915 039f 18       		.sleb128 24
 2916 03a0 92000000 		.4byte	.LCFI3-.Ltext0
 2917 03a4 94000000 		.4byte	.LCFI4-.Ltext0
 2918 03a8 0200     		.2byte	0x2
 2919 03aa 77       		.byte	0x77
 2920 03ab 08       		.sleb128 8
 2921 03ac 94000000 		.4byte	.LCFI4-.Ltext0
 2922 03b0 A4000000 		.4byte	.LFE2-.Ltext0
 2923 03b4 0200     		.2byte	0x2
 2924 03b6 7D       		.byte	0x7d
 2925 03b7 08       		.sleb128 8
 2926 03b8 00000000 		.4byte	0
 2927 03bc 00000000 		.4byte	0
 2928              		.section	.debug_aranges,"",%progbits
 2929 0000 1C000000 		.4byte	0x1c
 2930 0004 0200     		.2byte	0x2
 2931 0006 00000000 		.4byte	.Ldebug_info0
 2932 000a 04       		.byte	0x4
 2933 000b 00       		.byte	0
 2934 000c 0000     		.2byte	0
 2935 000e 0000     		.2byte	0
 2936 0010 00000000 		.4byte	.Ltext0
 2937 0014 84080000 		.4byte	.Letext0-.Ltext0
 2938 0018 00000000 		.4byte	0
 2939 001c 00000000 		.4byte	0
 2940              		.section	.debug_line,"",%progbits
 2941              	.Ldebug_line0:
 2942 0000 17020000 		.section	.debug_str,"MS",%progbits,1
 2942      02006600 
 2942      00000201 
 2942      FB0E0D00 
 2942      01010101 
 2943              	.LASF29:
 2944 0000 56656374 		.ascii	"Vector_pop_back\000"
 2944      6F725F70 
 2944      6F705F62 
 2944      61636B00 
 2945              	.LASF23:
ARM GAS  G:\Users\Jaxb\AppData\Local\Temp\ccUb5Hmi.s 			page 62


 2946 0010 66726F6D 		.ascii	"from\000"
 2946      00
 2947              	.LASF13:
 2948 0015 696E6465 		.ascii	"index1\000"
 2948      783100
 2949              	.LASF14:
 2950 001c 696E6465 		.ascii	"index2\000"
 2950      783200
 2951              	.LASF17:
 2952 0023 64657374 		.ascii	"dest_index\000"
 2952      5F696E64 
 2952      657800
 2953              	.LASF3:
 2954 002e 64617461 		.ascii	"data_size\000"
 2954      5F73697A 
 2954      6500
 2955              	.LASF5:
 2956 0038 756E7369 		.ascii	"unsigned int\000"
 2956      676E6564 
 2956      20696E74 
 2956      00
 2957              	.LASF31:
 2958 0045 56656374 		.ascii	"Vector_push_back\000"
 2958      6F725F70 
 2958      7573685F 
 2958      6261636B 
 2958      00
 2959              	.LASF43:
 2960 0056 56656374 		.ascii	"Vector_init\000"
 2960      6F725F69 
 2960      6E697400 
 2961              	.LASF38:
 2962 0062 2E2E2F2E 		.ascii	"../../source/src/kernel/OS_LIB/vector.c\000"
 2962      2E2F736F 
 2962      75726365 
 2962      2F737263 
 2962      2F6B6572 
 2963              	.LASF16:
 2964 008a 56656374 		.ascii	"Vector_set_inner\000"
 2964      6F725F73 
 2964      65745F69 
 2964      6E6E6572 
 2964      00
 2965              	.LASF36:
 2966 009b 6C656E5F 		.ascii	"len_per_data\000"
 2966      7065725F 
 2966      64617461 
 2966      00
 2967              	.LASF28:
 2968 00a8 56656374 		.ascii	"Vector_get_index_data\000"
 2968      6F725F67 
 2968      65745F69 
 2968      6E646578 
 2968      5F646174 
 2969              	.LASF9:
 2970 00be 756E7369 		.ascii	"unsigned char\000"
 2970      676E6564 
ARM GAS  G:\Users\Jaxb\AppData\Local\Temp\ccUb5Hmi.s 			page 63


 2970      20636861 
 2970      7200
 2971              	.LASF25:
 2972 00cc 56656374 		.ascii	"Vector_get_index_address\000"
 2972      6F725F67 
 2972      65745F69 
 2972      6E646578 
 2972      5F616464 
 2973              	.LASF10:
 2974 00e5 73686F72 		.ascii	"short unsigned int\000"
 2974      7420756E 
 2974      7369676E 
 2974      65642069 
 2974      6E7400
 2975              	.LASF32:
 2976 00f8 70757368 		.ascii	"push_data_ptr\000"
 2976      5F646174 
 2976      615F7074 
 2976      7200
 2977              	.LASF18:
 2978 0106 7372635F 		.ascii	"src_index\000"
 2978      696E6465 
 2978      7800
 2979              	.LASF2:
 2980 0110 6375725F 		.ascii	"cur_len\000"
 2980      6C656E00 
 2981              	.LASF1:
 2982 0118 6D61785F 		.ascii	"max_len\000"
 2982      6C656E00 
 2983              	.LASF26:
 2984 0120 64617461 		.ascii	"data_add_ptr\000"
 2984      5F616464 
 2984      5F707472 
 2984      00
 2985              	.LASF0:
 2986 012d 64617461 		.ascii	"data_ptr\000"
 2986      5F707472 
 2986      00
 2987              	.LASF11:
 2988 0136 6C6F6E67 		.ascii	"long long unsigned int\000"
 2988      206C6F6E 
 2988      6720756E 
 2988      7369676E 
 2988      65642069 
 2989              	.LASF41:
 2990 014d 56656374 		.ascii	"Vector\000"
 2990      6F7200
 2991              	.LASF12:
 2992 0154 76656374 		.ascii	"vector_ptr\000"
 2992      6F725F70 
 2992      747200
 2993              	.LASF27:
 2994 015f 56656374 		.ascii	"Vector_set_index_data\000"
 2994      6F725F73 
 2994      65745F69 
 2994      6E646578 
 2994      5F646174 
ARM GAS  G:\Users\Jaxb\AppData\Local\Temp\ccUb5Hmi.s 			page 64


 2995              	.LASF8:
 2996 0175 6C6F6E67 		.ascii	"long long int\000"
 2996      206C6F6E 
 2996      6720696E 
 2996      7400
 2997              	.LASF19:
 2998 0183 56656374 		.ascii	"Vector_remove_index_data\000"
 2998      6F725F72 
 2998      656D6F76 
 2998      655F696E 
 2998      6465785F 
 2999              	.LASF40:
 3000 019c 76656374 		.ascii	"vector\000"
 3000      6F7200
 3001              	.LASF22:
 3002 01a3 56656374 		.ascii	"Vector_erase_data\000"
 3002      6F725F65 
 3002      72617365 
 3002      5F646174 
 3002      6100
 3003              	.LASF20:
 3004 01b5 696E6465 		.ascii	"index\000"
 3004      7800
 3005              	.LASF21:
 3006 01bb 64617461 		.ascii	"data_store_ptr\000"
 3006      5F73746F 
 3006      72655F70 
 3006      747200
 3007              	.LASF4:
 3008 01ca 65787465 		.ascii	"extension_factor\000"
 3008      6E73696F 
 3008      6E5F6661 
 3008      63746F72 
 3008      00
 3009              	.LASF7:
 3010 01db 73686F72 		.ascii	"short int\000"
 3010      7420696E 
 3010      7400
 3011              	.LASF42:
 3012 01e5 65787061 		.ascii	"expand_room\000"
 3012      6E645F72 
 3012      6F6F6D00 
 3013              	.LASF33:
 3014 01f1 62756666 		.ascii	"buffer\000"
 3014      657200
 3015              	.LASF15:
 3016 01f8 56656374 		.ascii	"Vector_swap_inner\000"
 3016      6F725F73 
 3016      7761705F 
 3016      696E6E65 
 3016      7200
 3017              	.LASF37:
 3018 020a 474E5520 		.ascii	"GNU C11 7.3.1 20180622 (release) [ARM/embedded-7-br"
 3018      43313120 
 3018      372E332E 
 3018      31203230 
 3018      31383036 
ARM GAS  G:\Users\Jaxb\AppData\Local\Temp\ccUb5Hmi.s 			page 65


 3019 023d 616E6368 		.ascii	"anch revision 261907] -mcpu=cortex-m3 -mthumb -mapc"
 3019      20726576 
 3019      6973696F 
 3019      6E203236 
 3019      31393037 
 3020 0270 732D6672 		.ascii	"s-frame -mthumb-interwork -mcpu=cortex-m3 -mthumb -"
 3020      616D6520 
 3020      2D6D7468 
 3020      756D622D 
 3020      696E7465 
 3021 02a3 67647761 		.ascii	"gdwarf-2 -O0\000"
 3021      72662D32 
 3021      202D4F30 
 3021      00
 3022              	.LASF30:
 3023 02b0 706F705F 		.ascii	"pop_data_ptr\000"
 3023      64617461 
 3023      5F707472 
 3023      00
 3024              	.LASF6:
 3025 02bd 7369676E 		.ascii	"signed char\000"
 3025      65642063 
 3025      68617200 
 3026              	.LASF34:
 3027 02c9 62756666 		.ascii	"buffer_ptr\000"
 3027      65725F70 
 3027      747200
 3028              	.LASF35:
 3029 02d4 73697A65 		.ascii	"size\000"
 3029      00
 3030              	.LASF24:
 3031 02d9 56656374 		.ascii	"Vector_delete\000"
 3031      6F725F64 
 3031      656C6574 
 3031      6500
 3032              	.LASF39:
 3033 02e7 463A5C6B 		.ascii	"F:\\kaka\\KAKAOS\\C\\windows\\Project\\RVMDK\243\250"
 3033      616B615C 
 3033      4B414B41 
 3033      4F535C43 
 3033      5C77696E 
 3034 030f 757635A3 		.ascii	"uv5\243\251\000"
 3034      A900
 3035              		.ident	"GCC: (GNU Tools for Arm Embedded Processors 7-2018-q2-update) 7.3.1 20180622 (release) [AR
ARM GAS  G:\Users\Jaxb\AppData\Local\Temp\ccUb5Hmi.s 			page 66


DEFINED SYMBOLS
                            *ABS*:00000000 vector.c
G:\Users\Jaxb\AppData\Local\Temp\ccUb5Hmi.s:16     .rodata:00000000 $d
G:\Users\Jaxb\AppData\Local\Temp\ccUb5Hmi.s:28     .text:00000000 $t
G:\Users\Jaxb\AppData\Local\Temp\ccUb5Hmi.s:35     .text:00000000 Vector_init
G:\Users\Jaxb\AppData\Local\Temp\ccUb5Hmi.s:149    .text:00000098 $d
G:\Users\Jaxb\AppData\Local\Temp\ccUb5Hmi.s:155    .text:000000a4 $t
G:\Users\Jaxb\AppData\Local\Temp\ccUb5Hmi.s:161    .text:000000a4 expand_room
G:\Users\Jaxb\AppData\Local\Temp\ccUb5Hmi.s:317    .text:0000019c $d
G:\Users\Jaxb\AppData\Local\Temp\ccUb5Hmi.s:331    .text:000001a0 $t
G:\Users\Jaxb\AppData\Local\Temp\ccUb5Hmi.s:338    .text:000001a0 Vector_push_back
G:\Users\Jaxb\AppData\Local\Temp\ccUb5Hmi.s:482    .text:00000274 $d
G:\Users\Jaxb\AppData\Local\Temp\ccUb5Hmi.s:494    .text:00000280 $t
G:\Users\Jaxb\AppData\Local\Temp\ccUb5Hmi.s:501    .text:00000280 Vector_pop_back
G:\Users\Jaxb\AppData\Local\Temp\ccUb5Hmi.s:590    .text:000002f0 $d
G:\Users\Jaxb\AppData\Local\Temp\ccUb5Hmi.s:609    .text:000002f8 $t
G:\Users\Jaxb\AppData\Local\Temp\ccUb5Hmi.s:616    .text:000002f8 Vector_get_index_data
G:\Users\Jaxb\AppData\Local\Temp\ccUb5Hmi.s:715    .text:0000037c $d
G:\Users\Jaxb\AppData\Local\Temp\ccUb5Hmi.s:736    .text:0000038c $t
G:\Users\Jaxb\AppData\Local\Temp\ccUb5Hmi.s:743    .text:0000038c Vector_set_index_data
G:\Users\Jaxb\AppData\Local\Temp\ccUb5Hmi.s:842    .text:00000410 $d
G:\Users\Jaxb\AppData\Local\Temp\ccUb5Hmi.s:863    .text:00000420 $t
G:\Users\Jaxb\AppData\Local\Temp\ccUb5Hmi.s:870    .text:00000420 Vector_get_index_address
G:\Users\Jaxb\AppData\Local\Temp\ccUb5Hmi.s:966    .text:0000049c $d
G:\Users\Jaxb\AppData\Local\Temp\ccUb5Hmi.s:979    .text:000004ac $t
G:\Users\Jaxb\AppData\Local\Temp\ccUb5Hmi.s:986    .text:000004ac Vector_delete
G:\Users\Jaxb\AppData\Local\Temp\ccUb5Hmi.s:1045   .text:000004e8 $d
G:\Users\Jaxb\AppData\Local\Temp\ccUb5Hmi.s:1064   .text:000004f0 $t
G:\Users\Jaxb\AppData\Local\Temp\ccUb5Hmi.s:1071   .text:000004f0 Vector_erase_data
G:\Users\Jaxb\AppData\Local\Temp\ccUb5Hmi.s:1212   .text:000005c4 $d
G:\Users\Jaxb\AppData\Local\Temp\ccUb5Hmi.s:1229   .text:000005d4 $t
G:\Users\Jaxb\AppData\Local\Temp\ccUb5Hmi.s:1236   .text:000005d4 Vector_remove_index_data
G:\Users\Jaxb\AppData\Local\Temp\ccUb5Hmi.s:1366   .text:0000069c $d
G:\Users\Jaxb\AppData\Local\Temp\ccUb5Hmi.s:1386   .text:000006a8 $t
G:\Users\Jaxb\AppData\Local\Temp\ccUb5Hmi.s:1393   .text:000006a8 Vector_set_inner
G:\Users\Jaxb\AppData\Local\Temp\ccUb5Hmi.s:1518   .text:0000075c $d
G:\Users\Jaxb\AppData\Local\Temp\ccUb5Hmi.s:1539   .text:0000076c $t
G:\Users\Jaxb\AppData\Local\Temp\ccUb5Hmi.s:1546   .text:0000076c Vector_swap_inner
G:\Users\Jaxb\AppData\Local\Temp\ccUb5Hmi.s:1714   .text:00000874 $d

UNDEFINED SYMBOLS
_ASSERT
ka_printf
ka_malloc
ka_memcpy
ka_free
